Archive member included because of file (symbol)

./../../../../BitCloud/lib/libHAL_ZigBit_Atmega1281_8Mhz_Gcc.a(appTimer.o)
                              All_Sec_ZigBit_Atmega1281_Rf212_8Mhz_Gcc/Obj/app.o (HAL_StartAppTimer)
./../../../../BitCloud/lib/libHAL_ZigBit_Atmega1281_8Mhz_Gcc.a(usart.o)
                              All_Sec_ZigBit_Atmega1281_Rf212_8Mhz_Gcc/Obj/app.o (HAL_WriteUsart)
./../../../../BitCloud/lib/libHAL_ZigBit_Atmega1281_8Mhz_Gcc.a(irq.o)
                              All_Sec_ZigBit_Atmega1281_Rf212_8Mhz_Gcc/Obj/buttons.o (HAL_RegisterIrq)
./../../../../BitCloud/lib/libHAL_ZigBit_Atmega1281_8Mhz_Gcc.a(i2cPacket.o)
                              All_Sec_ZigBit_Atmega1281_Rf212_8Mhz_Gcc/Obj/lm73.o (HAL_OpenI2cPacket)
./../../../../BitCloud/lib/libHAL_ZigBit_Atmega1281_8Mhz_Gcc.a(eeprom.o)
                              All_Sec_ZigBit_Atmega1281_Rf212_8Mhz_Gcc/Obj/pdsWriteData.o (HAL_ReadEeprom)
./../../../../BitCloud/lib/libHAL_ZigBit_Atmega1281_8Mhz_Gcc.a(timer.o)
                              ./../../../../BitCloud/lib/libHAL_ZigBit_Atmega1281_8Mhz_Gcc.a(appTimer.o) (halAddTimer)
./../../../../BitCloud/lib/libHAL_ZigBit_Atmega1281_8Mhz_Gcc.a(halSleepTimerClock.o)
                              ./../../../../BitCloud/lib/libHAL_ZigBit_Atmega1281_8Mhz_Gcc.a(appTimer.o) (halGetTimeOfSleepTimer)
./../../../../BitCloud/lib/libHAL_ZigBit_Atmega1281_8Mhz_Gcc.a(halAppClock.o)
                              ./../../../../BitCloud/lib/libHAL_ZigBit_Atmega1281_8Mhz_Gcc.a(appTimer.o) (halGetTimeOfAppTimer)
./../../../../BitCloud/lib/libHAL_ZigBit_Atmega1281_8Mhz_Gcc.a(halUsart.o)
                              ./../../../../BitCloud/lib/libHAL_ZigBit_Atmega1281_8Mhz_Gcc.a(usart.o) (halSetUsartConfig)
./../../../../BitCloud/lib/libHAL_ZigBit_Atmega1281_8Mhz_Gcc.a(halIrq.o)
                              ./../../../../BitCloud/lib/libHAL_ZigBit_Atmega1281_8Mhz_Gcc.a(irq.o) (halSetIrqConfig)
./../../../../BitCloud/lib/libHAL_ZigBit_Atmega1281_8Mhz_Gcc.a(halTwi.o)
                              ./../../../../BitCloud/lib/libHAL_ZigBit_Atmega1281_8Mhz_Gcc.a(i2cPacket.o) (halInitI2c)
./../../../../BitCloud/lib/libHAL_ZigBit_Atmega1281_8Mhz_Gcc.a(halEeprom.o)
                              ./../../../../BitCloud/lib/libHAL_ZigBit_Atmega1281_8Mhz_Gcc.a(eeprom.o) (halEepromWrite)
./../../../../BitCloud/lib/libHAL_ZigBit_Atmega1281_8Mhz_Gcc.a(halSleep.o)
                              ./../../../../BitCloud/lib/libHAL_ZigBit_Atmega1281_8Mhz_Gcc.a(halSleepTimerClock.o) (halPowerOn)
./../../../../BitCloud/lib/libHAL_ZigBit_Atmega1281_8Mhz_Gcc.a(calibration.o)
                              ./../../../../BitCloud/lib/libHAL_ZigBit_Atmega1281_8Mhz_Gcc.a(halSleep.o) (halStartingCalibrate)
./../../../../BitCloud/lib/libHAL_ZigBit_Atmega1281_8Mhz_Gcc.a(halRfCtrl.o)
                              ./../../../../BitCloud/lib/libHAL_ZigBit_Atmega1281_8Mhz_Gcc.a(halSleep.o) (halWaitRadio)
./../../../../BitCloud/lib/libHAL_ZigBit_Atmega1281_8Mhz_Gcc.a(halW1.o)
                              ./../../../../BitCloud/lib/libHAL_ZigBit_Atmega1281_8Mhz_Gcc.a(calibration.o) (__delay_us)
./../../../../BitCloud/lib/libHAL_ZigBit_Atmega1281_8Mhz_Gcc.a(halCalibration.o)
                              ./../../../../BitCloud/lib/libHAL_ZigBit_Atmega1281_8Mhz_Gcc.a(calibration.o) (halMeasurement)
./../../../../BitCloud/lib/libHAL_ZigBit_Atmega1281_8Mhz_Gcc.a(halTaskManager.o)
                              ./../../../../BitCloud/lib/libHAL_ZigBit_Atmega1281_8Mhz_Gcc.a(i2cPacket.o) (halTaskFlags4)
./../../../../BitCloud/lib/libHAL_ZigBit_Atmega1281_8Mhz_Gcc.a(adc.o)
                              ./../../../../BitCloud/lib/libHAL_ZigBit_Atmega1281_8Mhz_Gcc.a(halTaskManager.o) (halSigAdcHandler)
./../../../../BitCloud/lib/libHAL_ZigBit_Atmega1281_8Mhz_Gcc.a(sleep.o)
                              ./../../../../BitCloud/lib/libHAL_ZigBit_Atmega1281_8Mhz_Gcc.a(halSleepTimerClock.o) (halSleepControl)
./../../../../BitCloud/lib/libHAL_ZigBit_Atmega1281_8Mhz_Gcc.a(halClkCtrl.o)
                              ./../../../../BitCloud/lib/libHAL_ZigBit_Atmega1281_8Mhz_Gcc.a(halSleep.o) (halGetClockSource)
./../../../../BitCloud/lib/libHAL_ZigBit_Atmega1281_8Mhz_Gcc.a(halAdc.o)
                              ./../../../../BitCloud/lib/libHAL_ZigBit_Atmega1281_8Mhz_Gcc.a(adc.o) (halOpenAdc)
./../../../../BitCloud/lib/libHAL_ZigBit_Atmega1281_8Mhz_Gcc.a(halRfSpi.o)
                              ./../../../../BitCloud/lib/libHAL_ZigBit_Atmega1281_8Mhz_Gcc.a(halRfCtrl.o) (HAL_WriteByteRfSpi)
./../../../../BitCloud/lib/libHAL_ZigBit_Atmega1281_8Mhz_Gcc.a(sleepTimer.o)
                              ./../../../../BitCloud/lib/libHAL_ZigBit_Atmega1281_8Mhz_Gcc.a(sleep.o) (HAL_StartSleepTimer)
./../../../../BitCloud/lib/libBc_All_Sec_Atmega1281_Rf212_Gcc.a(nwk.o)
                              All_Sec_ZigBit_Atmega1281_Rf212_8Mhz_Gcc/Obj/configServer.o (NWK_ResetSecurityIB)
./../../../../BitCloud/lib/libBc_All_Sec_Atmega1281_Rf212_Gcc.a(queue.o)
                              ./../../../../BitCloud/lib/libBc_All_Sec_Atmega1281_Rf212_Gcc.a(nwk.o) (deleteHeadQueueElem)
./../../../../BitCloud/lib/libBc_All_Sec_Atmega1281_Rf212_Gcc.a(sspManager.o)
                              ./../../../../BitCloud/lib/libBc_All_Sec_Atmega1281_Rf212_Gcc.a(nwk.o) (SSP_EncryptFrameReq)
./../../../../BitCloud/lib/libBc_All_Sec_Atmega1281_Rf212_Gcc.a(sspMem.o)
                              ./../../../../BitCloud/lib/libBc_All_Sec_Atmega1281_Rf212_Gcc.a(sspManager.o) (sspMem)
./../../../../BitCloud/lib/libBc_All_Sec_Atmega1281_Rf212_Gcc.a(sspSfpHandler.o)
                              ./../../../../BitCloud/lib/libBc_All_Sec_Atmega1281_Rf212_Gcc.a(sspManager.o) (sspEncryptFrameReqHandler)
./../../../../BitCloud/lib/libBc_All_Sec_Atmega1281_Rf212_Gcc.a(sysDuplicateTable.o)
                              ./../../../../BitCloud/lib/libBc_All_Sec_Atmega1281_Rf212_Gcc.a(nwk.o) (SYS_DuplicateTableReset)
./../../../../BitCloud/lib/libBc_All_Sec_Atmega1281_Rf212_Gcc.a(sysEvents.o)
                              All_Sec_ZigBit_Atmega1281_Rf212_8Mhz_Gcc/Obj/pdsWriteData.o (SYS_PostEvent)
./../../../../BitCloud/lib/libBc_All_Sec_Atmega1281_Rf212_Gcc.a(taskManager.o)
                              All_Sec_ZigBit_Atmega1281_Rf212_8Mhz_Gcc/Obj/app.o (SYS_RunTask)
./../../../../BitCloud/lib/libBc_All_Sec_Atmega1281_Rf212_Gcc.a(tcTaskManager.o)
                              ./../../../../BitCloud/lib/libBc_All_Sec_Atmega1281_Rf212_Gcc.a(taskManager.o) (TC_TaskHandler)
./../../../../BitCloud/lib/libBc_All_Sec_Atmega1281_Rf212_Gcc.a(zdo.o)
                              ./../../../../BitCloud/lib/libBc_All_Sec_Atmega1281_Rf212_Gcc.a(taskManager.o) (ZDO_TaskHandler)
./../../../../BitCloud/lib/libBc_All_Sec_Atmega1281_Rf212_Gcc.a(aps.o)
                              ./../../../../BitCloud/lib/libBc_All_Sec_Atmega1281_Rf212_Gcc.a(zdo.o) (APS_BindReq)
./../../../../BitCloud/lib/libBc_All_Sec_Atmega1281_Rf212_Gcc.a(bcSysSleep.o)
                              ./../../../../BitCloud/lib/libBc_All_Sec_Atmega1281_Rf212_Gcc.a(zdo.o) (SYS_Sleep)
./../../../../BitCloud/lib/libBc_All_Sec_Atmega1281_Rf212_Gcc.a(macenvPib.o)
                              ./../../../../BitCloud/lib/libBc_All_Sec_Atmega1281_Rf212_Gcc.a(nwk.o) (MAC_GetExtAddr)
./../../../../BitCloud/lib/libBc_All_Sec_Atmega1281_Rf212_Gcc.a(machwdManager.o)
                              ./../../../../BitCloud/lib/libBc_All_Sec_Atmega1281_Rf212_Gcc.a(zdo.o) (RF_RandomReq)
./../../../../BitCloud/lib/libBc_All_Sec_Atmega1281_Rf212_Gcc.a(machwdRegAccessHandler.o)
                              ./../../../../BitCloud/lib/libBc_All_Sec_Atmega1281_Rf212_Gcc.a(machwdManager.o) (machwdRegAccessReqHandler)
./../../../../BitCloud/lib/libBc_All_Sec_Atmega1281_Rf212_Gcc.a(machwdResetHandler.o)
                              ./../../../../BitCloud/lib/libBc_All_Sec_Atmega1281_Rf212_Gcc.a(machwdManager.o) (machwdReset)
./../../../../BitCloud/lib/libBc_All_Sec_Atmega1281_Rf212_Gcc.a(machwdRndHandler.o)
                              ./../../../../BitCloud/lib/libBc_All_Sec_Atmega1281_Rf212_Gcc.a(machwdManager.o) (machwdRndReqHandler)
./../../../../BitCloud/lib/libBc_All_Sec_Atmega1281_Rf212_Gcc.a(machwdRxBuffer.o)
                              ./../../../../BitCloud/lib/libBc_All_Sec_Atmega1281_Rf212_Gcc.a(machwdResetHandler.o) (machwdResetRxBuffer)
./../../../../BitCloud/lib/libBc_All_Sec_Atmega1281_Rf212_Gcc.a(machwdRxFrameHandler.o)
                              ./../../../../BitCloud/lib/libBc_All_Sec_Atmega1281_Rf212_Gcc.a(machwdManager.o) (machwdRxFrameTaskHandler)
./../../../../BitCloud/lib/libBc_All_Sec_Atmega1281_Rf212_Gcc.a(machwdSetHandler.o)
                              ./../../../../BitCloud/lib/libBc_All_Sec_Atmega1281_Rf212_Gcc.a(machwdManager.o) (machwdSetReqHandler)
./../../../../BitCloud/lib/libBc_All_Sec_Atmega1281_Rf212_Gcc.a(machwdTrxCtrl.o)
                              ./../../../../BitCloud/lib/libBc_All_Sec_Atmega1281_Rf212_Gcc.a(machwdSetHandler.o) (machwdGetPhyTrxCmd)
./../../../../BitCloud/lib/libBc_All_Sec_Atmega1281_Rf212_Gcc.a(machwdTrxHandler.o)
                              ./../../../../BitCloud/lib/libBc_All_Sec_Atmega1281_Rf212_Gcc.a(machwdManager.o) (machwdTrxReqHandler)
./../../../../BitCloud/lib/libBc_All_Sec_Atmega1281_Rf212_Gcc.a(machwdTxFrameHandler.o)
                              ./../../../../BitCloud/lib/libBc_All_Sec_Atmega1281_Rf212_Gcc.a(machwdManager.o) (machwdTxFrameReqHandler)
./../../../../BitCloud/lib/libBc_All_Sec_Atmega1281_Rf212_Gcc.a(machwiManager.o)
                              ./../../../../BitCloud/lib/libBc_All_Sec_Atmega1281_Rf212_Gcc.a(taskManager.o) (MAC_HWI_TaskHandler)
./../../../../BitCloud/lib/libBc_All_Sec_Atmega1281_Rf212_Gcc.a(machwiOrphanHandler.o)
                              ./../../../../BitCloud/lib/libBc_All_Sec_Atmega1281_Rf212_Gcc.a(machwiManager.o) (machwiOrphanRespHandler)
./../../../../BitCloud/lib/libBc_All_Sec_Atmega1281_Rf212_Gcc.a(machwiPanServer.o)
                              ./../../../../BitCloud/lib/libBc_All_Sec_Atmega1281_Rf212_Gcc.a(machwdManager.o) (MACHWD_DataInd)
./../../../../BitCloud/lib/libBc_All_Sec_Atmega1281_Rf212_Gcc.a(machwiPollHandler.o)
                              ./../../../../BitCloud/lib/libBc_All_Sec_Atmega1281_Rf212_Gcc.a(machwiPanServer.o) (machwiPollInd)
./../../../../BitCloud/lib/libBc_All_Sec_Atmega1281_Rf212_Gcc.a(machwiPurgeHandler.o)
                              ./../../../../BitCloud/lib/libBc_All_Sec_Atmega1281_Rf212_Gcc.a(machwiManager.o) (machwiPurgeReqHandler)
./../../../../BitCloud/lib/libBc_All_Sec_Atmega1281_Rf212_Gcc.a(machwiResetHandler.o)
                              ./../../../../BitCloud/lib/libBc_All_Sec_Atmega1281_Rf212_Gcc.a(machwiManager.o) (machwiResetReqHandler)
./../../../../BitCloud/lib/libBc_All_Sec_Atmega1281_Rf212_Gcc.a(machwiRxEnableHandler.o)
                              ./../../../../BitCloud/lib/libBc_All_Sec_Atmega1281_Rf212_Gcc.a(machwiManager.o) (machwiRxEnableReqHandler)
./../../../../BitCloud/lib/libBc_All_Sec_Atmega1281_Rf212_Gcc.a(machwiScanHandler.o)
                              ./../../../../BitCloud/lib/libBc_All_Sec_Atmega1281_Rf212_Gcc.a(machwiManager.o) (machwiScanReqHandler)
./../../../../BitCloud/lib/libBc_All_Sec_Atmega1281_Rf212_Gcc.a(machwiSetGetHandler.o)
                              ./../../../../BitCloud/lib/libBc_All_Sec_Atmega1281_Rf212_Gcc.a(machwiManager.o) (machwiGetReqHandler)
./../../../../BitCloud/lib/libBc_All_Sec_Atmega1281_Rf212_Gcc.a(machwiStartHandler.o)
                              ./../../../../BitCloud/lib/libBc_All_Sec_Atmega1281_Rf212_Gcc.a(machwiManager.o) (machwiStartReqHandler)
./../../../../BitCloud/lib/libBc_All_Sec_Atmega1281_Rf212_Gcc.a(machwiSwitchRxCtrl.o)
                              ./../../../../BitCloud/lib/libBc_All_Sec_Atmega1281_Rf212_Gcc.a(machwiPollHandler.o) (machwiSwitchRxAccordToRxOnWhenIdle)
./../../../../BitCloud/lib/libBc_All_Sec_Atmega1281_Rf212_Gcc.a(machwiTransactionHandler.o)
                              ./../../../../BitCloud/lib/libBc_All_Sec_Atmega1281_Rf212_Gcc.a(machwiResetHandler.o) (machwiResetTransactionHandler)
./../../../../BitCloud/lib/libBc_All_Sec_Atmega1281_Rf212_Gcc.a(machwiTransactionQueue.o)
                              ./../../../../BitCloud/lib/libBc_All_Sec_Atmega1281_Rf212_Gcc.a(machwiManager.o) (machwiGetActivatedTransactionFromQueue)
./../../../../BitCloud/lib/libBc_All_Sec_Atmega1281_Rf212_Gcc.a(mnUtils.o)
                              ./../../../../BitCloud/lib/libBc_All_Sec_Atmega1281_Rf212_Gcc.a(sspManager.o) (SYS_GetRandomSequence)
./../../../../BitCloud/lib/libBc_All_Sec_Atmega1281_Rf212_Gcc.a(phyInit.o)
                              ./../../../../BitCloud/lib/libBc_All_Sec_Atmega1281_Rf212_Gcc.a(taskManager.o) (RF_Init)
./../../../../BitCloud/lib/libBc_All_Sec_Atmega1281_Rf212_Gcc.a(phyRegAccess.o)
                              ./../../../../BitCloud/lib/libBc_All_Sec_Atmega1281_Rf212_Gcc.a(machwdRegAccessHandler.o) (PHY_RegWriteReq)
./../../../../BitCloud/lib/libBc_All_Sec_Atmega1281_Rf212_Gcc.a(phyReset.o)
                              ./../../../../BitCloud/lib/libBc_All_Sec_Atmega1281_Rf212_Gcc.a(machwdResetHandler.o) (PHY_Reset)
./../../../../BitCloud/lib/libBc_All_Sec_Atmega1281_Rf212_Gcc.a(phyRfSpiProto.o)
                              ./../../../../BitCloud/lib/libBc_All_Sec_Atmega1281_Rf212_Gcc.a(phyInit.o) (phyWriteRegister)
./../../../../BitCloud/lib/libBc_All_Sec_Atmega1281_Rf212_Gcc.a(phyRnd.o)
                              ./../../../../BitCloud/lib/libBc_All_Sec_Atmega1281_Rf212_Gcc.a(machwdRndHandler.o) (PHY_RndReq)
./../../../../BitCloud/lib/libBc_All_Sec_Atmega1281_Rf212_Gcc.a(phyRxFrame.o)
                              ./../../../../BitCloud/lib/libBc_All_Sec_Atmega1281_Rf212_Gcc.a(machwdRxFrameHandler.o) (PHY_DownloadFrame)
./../../../../BitCloud/lib/libBc_All_Sec_Atmega1281_Rf212_Gcc.a(phySet.o)
                              ./../../../../BitCloud/lib/libBc_All_Sec_Atmega1281_Rf212_Gcc.a(machwdResetHandler.o) (PHY_SetReq)
./../../../../BitCloud/lib/libBc_All_Sec_Atmega1281_Rf212_Gcc.a(phySetTrxState.o)
                              ./../../../../BitCloud/lib/libBc_All_Sec_Atmega1281_Rf212_Gcc.a(machwdSetHandler.o) (PHY_SetTrxStateReq)
./../../../../BitCloud/lib/libBc_All_Sec_Atmega1281_Rf212_Gcc.a(phyStateMachine.o)
                              ./../../../../BitCloud/lib/libBc_All_Sec_Atmega1281_Rf212_Gcc.a(phyRnd.o) (PHY_CheckStateTransition)
./../../../../BitCloud/lib/libBc_All_Sec_Atmega1281_Rf212_Gcc.a(phyTxFrame.o)
                              ./../../../../BitCloud/lib/libBc_All_Sec_Atmega1281_Rf212_Gcc.a(machwdTxFrameHandler.o) (PHY_DataReq)
./../../../../BitCloud/lib/libBc_All_Sec_Atmega1281_Rf212_Gcc.a(sspCcmHandler.o)
                              ./../../../../BitCloud/lib/libBc_All_Sec_Atmega1281_Rf212_Gcc.a(sspSfpHandler.o) (ccmAuthReq)
./../../../../BitCloud/lib/libBc_All_Sec_Atmega1281_Rf212_Gcc.a(sysTimer.o)
                              ./../../../../BitCloud/lib/libBc_All_Sec_Atmega1281_Rf212_Gcc.a(aps.o) (SYS_StartTimer)
./../../../../BitCloud/lib/libBc_All_Sec_Atmega1281_Rf212_Gcc.a(tcIndInput.o)
                              ./../../../../BitCloud/lib/libBc_All_Sec_Atmega1281_Rf212_Gcc.a(zdo.o) (APS_UpdateDeviceInd)
./../../../../BitCloud/lib/libBc_All_Sec_Atmega1281_Rf212_Gcc.a(tcKeyUpdateHandler.o)
                              ./../../../../BitCloud/lib/libBc_All_Sec_Atmega1281_Rf212_Gcc.a(tcTaskManager.o) (tcKeyUpdateTaskHandler)
./../../../../BitCloud/lib/libBc_All_Sec_Atmega1281_Rf212_Gcc.a(tcMem.o)
                              ./../../../../BitCloud/lib/libBc_All_Sec_Atmega1281_Rf212_Gcc.a(tcTaskManager.o) (tcMem)
./../../../../BitCloud/lib/libBc_All_Sec_Atmega1281_Rf212_Gcc.a(tcRemoveHandler.o)
                              ./../../../../BitCloud/lib/libBc_All_Sec_Atmega1281_Rf212_Gcc.a(tcIndInput.o) (tcUpdateDeviceIndToRemoveHandler)
./../../../../BitCloud/lib/libBc_All_Sec_Atmega1281_Rf212_Gcc.a(tcResetHandler.o)
                              ./../../../../BitCloud/lib/libBc_All_Sec_Atmega1281_Rf212_Gcc.a(aps.o) (TC_Reset)
./../../../../BitCloud/lib/libBc_All_Sec_Atmega1281_Rf212_Gcc.a(macMem.o)
                              ./../../../../BitCloud/lib/libBc_All_Sec_Atmega1281_Rf212_Gcc.a(machwdManager.o) (macMem)
./../../../../BitCloud/lib/libBc_All_Sec_Atmega1281_Rf212_Gcc.a(machwdCalibHandler.o)
                              ./../../../../BitCloud/lib/libBc_All_Sec_Atmega1281_Rf212_Gcc.a(machwdManager.o) (machwdCalibReqHandler)
./../../../../BitCloud/lib/libBc_All_Sec_Atmega1281_Rf212_Gcc.a(machwdEdHandler.o)
                              ./../../../../BitCloud/lib/libBc_All_Sec_Atmega1281_Rf212_Gcc.a(machwdManager.o) (machwdEdReqHandler)
./../../../../BitCloud/lib/libBc_All_Sec_Atmega1281_Rf212_Gcc.a(machwdEncryptHandler.o)
                              ./../../../../BitCloud/lib/libBc_All_Sec_Atmega1281_Rf212_Gcc.a(machwdManager.o) (machwdEncryptReqHandler)
./../../../../BitCloud/lib/libBc_All_Sec_Atmega1281_Rf212_Gcc.a(machwdFrameRoutine.o)
                              ./../../../../BitCloud/lib/libBc_All_Sec_Atmega1281_Rf212_Gcc.a(machwdRxFrameHandler.o) (machwdParseFrame)
./../../../../BitCloud/lib/libBc_All_Sec_Atmega1281_Rf212_Gcc.a(machwdHandlerCtrl.o)
                              ./../../../../BitCloud/lib/libBc_All_Sec_Atmega1281_Rf212_Gcc.a(machwdManager.o) (machwdGetHandlerId)
./../../../../BitCloud/lib/libBc_All_Sec_Atmega1281_Rf212_Gcc.a(machwiAssociateHandler.o)
                              ./../../../../BitCloud/lib/libBc_All_Sec_Atmega1281_Rf212_Gcc.a(machwiResetHandler.o) (machwiResetAssociateHandler)
./../../../../BitCloud/lib/libBc_All_Sec_Atmega1281_Rf212_Gcc.a(machwiBeaconHandler.o)
                              ./../../../../BitCloud/lib/libBc_All_Sec_Atmega1281_Rf212_Gcc.a(machwiManager.o) (machwiSendBeacon)
./../../../../BitCloud/lib/libBc_All_Sec_Atmega1281_Rf212_Gcc.a(machwiDataHandler.o)
                              ./../../../../BitCloud/lib/libBc_All_Sec_Atmega1281_Rf212_Gcc.a(machwiOrphanHandler.o) (machwiConvertmachwdDataConfirmTypes)
./../../../../BitCloud/lib/libBc_All_Sec_Atmega1281_Rf212_Gcc.a(phyCalib.o)
                              ./../../../../BitCloud/lib/libBc_All_Sec_Atmega1281_Rf212_Gcc.a(machwdCalibHandler.o) (PHY_CalibReq)
./../../../../BitCloud/lib/libBc_All_Sec_Atmega1281_Rf212_Gcc.a(phyEd.o)
                              ./../../../../BitCloud/lib/libBc_All_Sec_Atmega1281_Rf212_Gcc.a(machwdEdHandler.o) (PHY_EdReq)
./../../../../BitCloud/lib/libBc_All_Sec_Atmega1281_Rf212_Gcc.a(phyEncrypt.o)
                              ./../../../../BitCloud/lib/libBc_All_Sec_Atmega1281_Rf212_Gcc.a(machwdEncryptHandler.o) (PHY_Encrypt)
./../../../../BitCloud/lib/libBc_All_Sec_Atmega1281_Rf212_Gcc.a(phyRtimerIrqDispatcher.o)
                              ./../../../../BitCloud/lib/libBc_All_Sec_Atmega1281_Rf212_Gcc.a(phyRxFrame.o) (phySetRTimerSource)
./../../../../BitCloud/lib/libBc_All_Sec_Atmega1281_Rf212_Gcc.a(tcAuthenticHandler.o)
                              ./../../../../BitCloud/lib/libBc_All_Sec_Atmega1281_Rf212_Gcc.a(tcIndInput.o) (tcUpdateDeviceIndToAuthenticHandler)
./../../../../BitCloud/lib/libHAL_ZigBit_Atmega1281_8Mhz_Gcc.a(halInit.o)
                              ./../../../../BitCloud/lib/libBc_All_Sec_Atmega1281_Rf212_Gcc.a(taskManager.o) (HAL_Init)
./../../../../BitCloud/lib/libHAL_ZigBit_Atmega1281_8Mhz_Gcc.a(halUid.o)
                              ./../../../../BitCloud/lib/libHAL_ZigBit_Atmega1281_8Mhz_Gcc.a(halInit.o) (halReadUid)
./../../../../BitCloud/lib/libHAL_ZigBit_Atmega1281_8Mhz_Gcc.a(halMacIsr.o)
                              ./../../../../BitCloud/lib/libBc_All_Sec_Atmega1281_Rf212_Gcc.a(phyInit.o) (HAL_InitMacIsr)
./../../../../BitCloud/lib/libHAL_ZigBit_Atmega1281_8Mhz_Gcc.a(halAtmelUid.o)
                              ./../../../../BitCloud/lib/libHAL_ZigBit_Atmega1281_8Mhz_Gcc.a(halUid.o) (halReadAtmelMeshbeanUid)
./../../../../BitCloud/lib/libHAL_ZigBit_Atmega1281_8Mhz_Gcc.a(w1.o)
                              ./../../../../BitCloud/lib/libHAL_ZigBit_Atmega1281_8Mhz_Gcc.a(halUid.o) (HAL_SearchW1Device)
./../../../../BitCloud/lib/libBc_All_Sec_Atmega1281_Rf212_Gcc.a(phyRfIrqDispatcher.o)
                              ./../../../../BitCloud/lib/libHAL_ZigBit_Atmega1281_8Mhz_Gcc.a(halMacIsr.o) (phyDispatcheRfInterrupt)
c:/winavr-20100110/bin/../lib/gcc/avr/4.3.3/avr51\libgcc.a(_mulsi3.o)
                              All_Sec_ZigBit_Atmega1281_Rf212_8Mhz_Gcc/Obj/tsl2550.o (__mulsi3)
c:/winavr-20100110/bin/../lib/gcc/avr/4.3.3/avr51\libgcc.a(_udivmodqi4.o)
                              ./../../../../BitCloud/lib/libBc_All_Sec_Atmega1281_Rf212_Gcc.a(aps.o) (__udivmodqi4)
c:/winavr-20100110/bin/../lib/gcc/avr/4.3.3/avr51\libgcc.a(_udivmodhi4.o)
                              All_Sec_ZigBit_Atmega1281_Rf212_8Mhz_Gcc/Obj/pdsInit.o (__udivmodhi4)
c:/winavr-20100110/bin/../lib/gcc/avr/4.3.3/avr51\libgcc.a(_divmodhi4.o)
                              All_Sec_ZigBit_Atmega1281_Rf212_8Mhz_Gcc/Obj/app.o (__divmodhi4)
c:/winavr-20100110/bin/../lib/gcc/avr/4.3.3/avr51\libgcc.a(_udivmodsi4.o)
                              All_Sec_ZigBit_Atmega1281_Rf212_8Mhz_Gcc/Obj/tsl2550.o (__udivmodsi4)
c:/winavr-20100110/bin/../lib/gcc/avr/4.3.3/avr51\libgcc.a(_prologue.o)
                              All_Sec_ZigBit_Atmega1281_Rf212_8Mhz_Gcc/Obj/pdsWriteData.o (__prologue_saves__)
c:/winavr-20100110/bin/../lib/gcc/avr/4.3.3/avr51\libgcc.a(_epilogue.o)
                              All_Sec_ZigBit_Atmega1281_Rf212_8Mhz_Gcc/Obj/pdsWriteData.o (__epilogue_restores__)
c:/winavr-20100110/bin/../lib/gcc/avr/4.3.3/avr51\libgcc.a(_exit.o)
                              c:/winavr-20100110/bin/../lib/gcc/avr/4.3.3/../../../../avr/lib/avr51/crtm1281.o (exit)
c:/winavr-20100110/bin/../lib/gcc/avr/4.3.3/avr51\libgcc.a(_tablejump.o)
                              ./../../../../BitCloud/lib/libBc_All_Sec_Atmega1281_Rf212_Gcc.a(nwk.o) (__tablejump2__)
c:/winavr-20100110/bin/../lib/gcc/avr/4.3.3/avr51\libgcc.a(_clear_bss.o)
                              All_Sec_ZigBit_Atmega1281_Rf212_8Mhz_Gcc/Obj/app.o (__do_clear_bss)
c:/winavr-20100110/bin/../lib/gcc/avr/4.3.3/avr51\libgcc.a(_lshrdi3.o)
                              ./../../../../BitCloud/lib/libHAL_ZigBit_Atmega1281_8Mhz_Gcc.a(halUid.o) (__lshrdi3)
c:/winavr-20100110/bin/../lib/gcc/avr/4.3.3/avr51\libgcc.a(_ashldi3.o)
                              ./../../../../BitCloud/lib/libHAL_ZigBit_Atmega1281_8Mhz_Gcc.a(appTimer.o) (__ashldi3)
c:/winavr-20100110/bin/../lib/gcc/avr/4.3.3/../../../../avr/lib/avr51\libc.a(rand.o)
                              All_Sec_ZigBit_Atmega1281_Rf212_8Mhz_Gcc/Obj/app.o (rand)
c:/winavr-20100110/bin/../lib/gcc/avr/4.3.3/../../../../avr/lib/avr51\libc.a(memcpy_P.o)
                              All_Sec_ZigBit_Atmega1281_Rf212_8Mhz_Gcc/Obj/pdsInit.o (memcpy_P)
c:/winavr-20100110/bin/../lib/gcc/avr/4.3.3/../../../../avr/lib/avr51\libc.a(memcmp.o)
                              ./../../../../BitCloud/lib/libBc_All_Sec_Atmega1281_Rf212_Gcc.a(nwk.o) (memcmp)
c:/winavr-20100110/bin/../lib/gcc/avr/4.3.3/../../../../avr/lib/avr51\libc.a(memcpy.o)
                              All_Sec_ZigBit_Atmega1281_Rf212_8Mhz_Gcc/Obj/configServer.o (memcpy)
c:/winavr-20100110/bin/../lib/gcc/avr/4.3.3/../../../../avr/lib/avr51\libc.a(memmove.o)
                              ./../../../../BitCloud/lib/libBc_All_Sec_Atmega1281_Rf212_Gcc.a(nwk.o) (memmove)
c:/winavr-20100110/bin/../lib/gcc/avr/4.3.3/../../../../avr/lib/avr51\libc.a(memset.o)
                              All_Sec_ZigBit_Atmega1281_Rf212_8Mhz_Gcc/Obj/pdsMemAccess.o (memset)
c:/winavr-20100110/bin/../lib/gcc/avr/4.3.3/avr51\libgcc.a(_divmodsi4.o)
                              c:/winavr-20100110/bin/../lib/gcc/avr/4.3.3/../../../../avr/lib/avr51\libc.a(rand.o) (__divmodsi4)

Allocating common symbols
Common symbol       size              file

stackBuffers        0x8f0             All_Sec_ZigBit_Atmega1281_Rf212_8Mhz_Gcc/Obj/csMem.o
readBatteryDataCallback
                    0x2               All_Sec_ZigBit_Atmega1281_Rf212_8Mhz_Gcc/Obj/fakeBSP.o
csAIB               0xc               All_Sec_ZigBit_Atmega1281_Rf212_8Mhz_Gcc/Obj/csMem.o
macMem              0x87              ./../../../../BitCloud/lib/libBc_All_Sec_Atmega1281_Rf212_Gcc.a(macMem.o)
extHandler          0x2               ./../../../../BitCloud/lib/libHAL_ZigBit_Atmega1281_8Mhz_Gcc.a(halTaskManager.o)
nwkMem              0x171             ./../../../../BitCloud/lib/libBc_All_Sec_Atmega1281_Rf212_Gcc.a(nwk.o)
csZIB               0x2f              All_Sec_ZigBit_Atmega1281_Rf212_8Mhz_Gcc/Obj/csMem.o
csPIB               0x38              All_Sec_ZigBit_Atmega1281_Rf212_8Mhz_Gcc/Obj/csMem.o
halEepromParams     0x6               ./../../../../BitCloud/lib/libHAL_ZigBit_Atmega1281_8Mhz_Gcc.a(eeprom.o)
tcMem               0x79              ./../../../../BitCloud/lib/libBc_All_Sec_Atmega1281_Rf212_Gcc.a(tcMem.o)
zdoMem              0x43d             ./../../../../BitCloud/lib/libBc_All_Sec_Atmega1281_Rf212_Gcc.a(zdo.o)
csSIB               0x3f              All_Sec_ZigBit_Atmega1281_Rf212_8Mhz_Gcc/Obj/csMem.o
apsMem              0xd7              ./../../../../BitCloud/lib/libBc_All_Sec_Atmega1281_Rf212_Gcc.a(aps.o)
txBuffer            0x21              ./../../../../BitCloud/lib/libBc_All_Sec_Atmega1281_Rf212_Gcc.a(machwdFrameRoutine.o)
__rtimer            0x5               ./../../../../BitCloud/lib/libHAL_ZigBit_Atmega1281_8Mhz_Gcc.a(halMacIsr.o)
pdsMem              0x2e              All_Sec_ZigBit_Atmega1281_Rf212_8Mhz_Gcc/Obj/pdsMem.o
sspMem              0xa5              ./../../../../BitCloud/lib/libBc_All_Sec_Atmega1281_Rf212_Gcc.a(sspMem.o)
halEepromDone       0x2               ./../../../../BitCloud/lib/libHAL_ZigBit_Atmega1281_8Mhz_Gcc.a(eeprom.o)
csNIB               0x8e              All_Sec_ZigBit_Atmega1281_Rf212_8Mhz_Gcc/Obj/csMem.o

Discarded input sections

 .data          0x00000000        0x0 c:/winavr-20100110/bin/../lib/gcc/avr/4.3.3/../../../../avr/lib/avr51/crtm1281.o
 .bss           0x00000000        0x0 c:/winavr-20100110/bin/../lib/gcc/avr/4.3.3/../../../../avr/lib/avr51/crtm1281.o
 .init9         0x00000000        0x0 c:/winavr-20100110/bin/../lib/gcc/avr/4.3.3/../../../../avr/lib/avr51/crtm1281.o
 .text          0x00000000        0x0 All_Sec_ZigBit_Atmega1281_Rf212_8Mhz_Gcc/Obj/app.o
 .text          0x00000000        0x0 All_Sec_ZigBit_Atmega1281_Rf212_8Mhz_Gcc/Obj/pdsMem.o
 .data          0x00000000        0x0 All_Sec_ZigBit_Atmega1281_Rf212_8Mhz_Gcc/Obj/pdsMem.o
 .bss           0x00000000        0x0 All_Sec_ZigBit_Atmega1281_Rf212_8Mhz_Gcc/Obj/pdsMem.o
 .text          0x00000000        0x0 All_Sec_ZigBit_Atmega1281_Rf212_8Mhz_Gcc/Obj/pdsWriteData.o
 .data          0x00000000        0x0 All_Sec_ZigBit_Atmega1281_Rf212_8Mhz_Gcc/Obj/pdsWriteData.o
 .text.pdsCorruptFiles
                0x00000000        0x0 All_Sec_ZigBit_Atmega1281_Rf212_8Mhz_Gcc/Obj/pdsWriteData.o
 .text.pdsUpdate
                0x00000000        0x0 All_Sec_ZigBit_Atmega1281_Rf212_8Mhz_Gcc/Obj/pdsWriteData.o
 .text          0x00000000        0x0 All_Sec_ZigBit_Atmega1281_Rf212_8Mhz_Gcc/Obj/pdsDataServer.o
 .data          0x00000000        0x0 All_Sec_ZigBit_Atmega1281_Rf212_8Mhz_Gcc/Obj/pdsDataServer.o
 .bss           0x00000000        0x0 All_Sec_ZigBit_Atmega1281_Rf212_8Mhz_Gcc/Obj/pdsDataServer.o
 .text.PDS_WriteUserData
                0x00000000        0x0 All_Sec_ZigBit_Atmega1281_Rf212_8Mhz_Gcc/Obj/pdsDataServer.o
 .text.PDS_ReadUserData
                0x00000000        0x0 All_Sec_ZigBit_Atmega1281_Rf212_8Mhz_Gcc/Obj/pdsDataServer.o
 .text.PDS_ResetStorage
                0x00000000        0x0 All_Sec_ZigBit_Atmega1281_Rf212_8Mhz_Gcc/Obj/pdsDataServer.o
 .text.PDS_ClearRestoredMemory
                0x00000000        0x0 All_Sec_ZigBit_Atmega1281_Rf212_8Mhz_Gcc/Obj/pdsDataServer.o
 .text.PDS_IsAbleToStore
                0x00000000        0x0 All_Sec_ZigBit_Atmega1281_Rf212_8Mhz_Gcc/Obj/pdsDataServer.o
 .text.PDS_IsAbleToRestore
                0x00000000        0x0 All_Sec_ZigBit_Atmega1281_Rf212_8Mhz_Gcc/Obj/pdsDataServer.o
 .text.PDS_BlockingStore
                0x00000000        0x0 All_Sec_ZigBit_Atmega1281_Rf212_8Mhz_Gcc/Obj/pdsDataServer.o
 .text.PDS_FlushData
                0x00000000        0x0 All_Sec_ZigBit_Atmega1281_Rf212_8Mhz_Gcc/Obj/pdsDataServer.o
 .text.PDS_Restore
                0x00000000        0x0 All_Sec_ZigBit_Atmega1281_Rf212_8Mhz_Gcc/Obj/pdsDataServer.o
 .text          0x00000000        0x0 All_Sec_ZigBit_Atmega1281_Rf212_8Mhz_Gcc/Obj/pdsInit.o
 .data          0x00000000        0x0 All_Sec_ZigBit_Atmega1281_Rf212_8Mhz_Gcc/Obj/pdsInit.o
 .bss           0x00000000        0x0 All_Sec_ZigBit_Atmega1281_Rf212_8Mhz_Gcc/Obj/pdsInit.o
 .text          0x00000000        0x0 All_Sec_ZigBit_Atmega1281_Rf212_8Mhz_Gcc/Obj/pdsTimer.o
 .data          0x00000000        0x0 All_Sec_ZigBit_Atmega1281_Rf212_8Mhz_Gcc/Obj/pdsTimer.o
 .bss           0x00000000        0x0 All_Sec_ZigBit_Atmega1281_Rf212_8Mhz_Gcc/Obj/pdsTimer.o
 .text.PDS_Run  0x00000000        0x0 All_Sec_ZigBit_Atmega1281_Rf212_8Mhz_Gcc/Obj/pdsTimer.o
 .text.PDS_StoreByTimer
                0x00000000        0x0 All_Sec_ZigBit_Atmega1281_Rf212_8Mhz_Gcc/Obj/pdsTimer.o
 .text.PDS_Stop
                0x00000000        0x0 All_Sec_ZigBit_Atmega1281_Rf212_8Mhz_Gcc/Obj/pdsTimer.o
 .text          0x00000000        0x0 All_Sec_ZigBit_Atmega1281_Rf212_8Mhz_Gcc/Obj/pdsEvents.o
 .data          0x00000000        0x0 All_Sec_ZigBit_Atmega1281_Rf212_8Mhz_Gcc/Obj/pdsEvents.o
 .bss           0x00000000        0x0 All_Sec_ZigBit_Atmega1281_Rf212_8Mhz_Gcc/Obj/pdsEvents.o
 .text.PDS_StoreByEvents
                0x00000000        0x0 All_Sec_ZigBit_Atmega1281_Rf212_8Mhz_Gcc/Obj/pdsEvents.o
 .text.pdsObserver
                0x00000000        0x0 All_Sec_ZigBit_Atmega1281_Rf212_8Mhz_Gcc/Obj/pdsEvents.o
 .progmem.data  0x00000000        0x0 All_Sec_ZigBit_Atmega1281_Rf212_8Mhz_Gcc/Obj/pdsEvents.o
 .text          0x00000000        0x0 All_Sec_ZigBit_Atmega1281_Rf212_8Mhz_Gcc/Obj/pdsMemAccess.o
 .data          0x00000000        0x0 All_Sec_ZigBit_Atmega1281_Rf212_8Mhz_Gcc/Obj/pdsMemAccess.o
 .bss           0x00000000        0x0 All_Sec_ZigBit_Atmega1281_Rf212_8Mhz_Gcc/Obj/pdsMemAccess.o
 .text.pdsGetDirectoryDescrRec
                0x00000000        0x0 All_Sec_ZigBit_Atmega1281_Rf212_8Mhz_Gcc/Obj/pdsMemAccess.o
 .text          0x00000000        0x0 All_Sec_ZigBit_Atmega1281_Rf212_8Mhz_Gcc/Obj/pdsCrcService.o
 .data          0x00000000        0x0 All_Sec_ZigBit_Atmega1281_Rf212_8Mhz_Gcc/Obj/pdsCrcService.o
 .bss           0x00000000        0x0 All_Sec_ZigBit_Atmega1281_Rf212_8Mhz_Gcc/Obj/pdsCrcService.o
 .text          0x00000000        0x0 All_Sec_ZigBit_Atmega1281_Rf212_8Mhz_Gcc/Obj/sensors.o
 .data          0x00000000        0x0 All_Sec_ZigBit_Atmega1281_Rf212_8Mhz_Gcc/Obj/sensors.o
 .bss           0x00000000        0x0 All_Sec_ZigBit_Atmega1281_Rf212_8Mhz_Gcc/Obj/sensors.o
 .text.BSP_ReadLightData
                0x00000000        0x0 All_Sec_ZigBit_Atmega1281_Rf212_8Mhz_Gcc/Obj/sensors.o
 .text.BSP_CloseLightSensor
                0x00000000        0x0 All_Sec_ZigBit_Atmega1281_Rf212_8Mhz_Gcc/Obj/sensors.o
 .text.BSP_OpenLightSensor
                0x00000000        0x0 All_Sec_ZigBit_Atmega1281_Rf212_8Mhz_Gcc/Obj/sensors.o
 .text.BSP_ReadTemperatureData
                0x00000000        0x0 All_Sec_ZigBit_Atmega1281_Rf212_8Mhz_Gcc/Obj/sensors.o
 .text.BSP_CloseTemperatureSensor
                0x00000000        0x0 All_Sec_ZigBit_Atmega1281_Rf212_8Mhz_Gcc/Obj/sensors.o
 .text.BSP_OpenTemperatureSensor
                0x00000000        0x0 All_Sec_ZigBit_Atmega1281_Rf212_8Mhz_Gcc/Obj/sensors.o
 .text          0x00000000        0x0 All_Sec_ZigBit_Atmega1281_Rf212_8Mhz_Gcc/Obj/buttons.o
 .data          0x00000000        0x0 All_Sec_ZigBit_Atmega1281_Rf212_8Mhz_Gcc/Obj/buttons.o
 .text.BSP_ReadButtonsState
                0x00000000        0x0 All_Sec_ZigBit_Atmega1281_Rf212_8Mhz_Gcc/Obj/buttons.o
 .text.bspKey1InterruptHandler
                0x00000000        0x0 All_Sec_ZigBit_Atmega1281_Rf212_8Mhz_Gcc/Obj/buttons.o
 .text.bspKey0InterruptHandler
                0x00000000        0x0 All_Sec_ZigBit_Atmega1281_Rf212_8Mhz_Gcc/Obj/buttons.o
 .text.BSP_CloseButtons
                0x00000000        0x0 All_Sec_ZigBit_Atmega1281_Rf212_8Mhz_Gcc/Obj/buttons.o
 .text.BSP_OpenButtons
                0x00000000        0x0 All_Sec_ZigBit_Atmega1281_Rf212_8Mhz_Gcc/Obj/buttons.o
 .text          0x00000000        0x0 All_Sec_ZigBit_Atmega1281_Rf212_8Mhz_Gcc/Obj/pwrCtrl.o
 .data          0x00000000        0x0 All_Sec_ZigBit_Atmega1281_Rf212_8Mhz_Gcc/Obj/pwrCtrl.o
 .bss           0x00000000        0x0 All_Sec_ZigBit_Atmega1281_Rf212_8Mhz_Gcc/Obj/pwrCtrl.o
 .text          0x00000000        0x0 All_Sec_ZigBit_Atmega1281_Rf212_8Mhz_Gcc/Obj/leds.o
 .data          0x00000000        0x0 All_Sec_ZigBit_Atmega1281_Rf212_8Mhz_Gcc/Obj/leds.o
 .bss           0x00000000        0x0 All_Sec_ZigBit_Atmega1281_Rf212_8Mhz_Gcc/Obj/leds.o
 .text.BSP_OpenLeds
                0x00000000        0x0 All_Sec_ZigBit_Atmega1281_Rf212_8Mhz_Gcc/Obj/leds.o
 .text.BSP_CloseLeds
                0x00000000        0x0 All_Sec_ZigBit_Atmega1281_Rf212_8Mhz_Gcc/Obj/leds.o
 .text.BSP_OnLed
                0x00000000        0x0 All_Sec_ZigBit_Atmega1281_Rf212_8Mhz_Gcc/Obj/leds.o
 .text.BSP_OffLed
                0x00000000        0x0 All_Sec_ZigBit_Atmega1281_Rf212_8Mhz_Gcc/Obj/leds.o
 .text.BSP_ToggleLed
                0x00000000        0x0 All_Sec_ZigBit_Atmega1281_Rf212_8Mhz_Gcc/Obj/leds.o
 .text          0x00000000        0x0 All_Sec_ZigBit_Atmega1281_Rf212_8Mhz_Gcc/Obj/battery.o
 .data          0x00000000        0x0 All_Sec_ZigBit_Atmega1281_Rf212_8Mhz_Gcc/Obj/battery.o
 .bss           0x00000000        0x0 All_Sec_ZigBit_Atmega1281_Rf212_8Mhz_Gcc/Obj/battery.o
 .text          0x00000000        0x0 All_Sec_ZigBit_Atmega1281_Rf212_8Mhz_Gcc/Obj/lm73.o
 .text.openLm73
                0x00000000        0x0 All_Sec_ZigBit_Atmega1281_Rf212_8Mhz_Gcc/Obj/lm73.o
 .text.closeLm73
                0x00000000        0x0 All_Sec_ZigBit_Atmega1281_Rf212_8Mhz_Gcc/Obj/lm73.o
 .text.readLm73Data
                0x00000000        0x0 All_Sec_ZigBit_Atmega1281_Rf212_8Mhz_Gcc/Obj/lm73.o
 .text          0x00000000        0x0 All_Sec_ZigBit_Atmega1281_Rf212_8Mhz_Gcc/Obj/tsl2550.o
 .text.openTsl2550
                0x00000000        0x0 All_Sec_ZigBit_Atmega1281_Rf212_8Mhz_Gcc/Obj/tsl2550.o
 .text.closeTsl2550
                0x00000000        0x0 All_Sec_ZigBit_Atmega1281_Rf212_8Mhz_Gcc/Obj/tsl2550.o
 .text.readTsl2550Data
                0x00000000        0x0 All_Sec_ZigBit_Atmega1281_Rf212_8Mhz_Gcc/Obj/tsl2550.o
 .text.tsl2550I2cPowerupDone
                0x00000000        0x0 All_Sec_ZigBit_Atmega1281_Rf212_8Mhz_Gcc/Obj/tsl2550.o
 .text          0x00000000        0x0 All_Sec_ZigBit_Atmega1281_Rf212_8Mhz_Gcc/Obj/sliders.o
 .data          0x00000000        0x0 All_Sec_ZigBit_Atmega1281_Rf212_8Mhz_Gcc/Obj/sliders.o
 .bss           0x00000000        0x0 All_Sec_ZigBit_Atmega1281_Rf212_8Mhz_Gcc/Obj/sliders.o
 .text.BSP_ReadSliders
                0x00000000        0x0 All_Sec_ZigBit_Atmega1281_Rf212_8Mhz_Gcc/Obj/sliders.o
 .text          0x00000000        0x0 All_Sec_ZigBit_Atmega1281_Rf212_8Mhz_Gcc/Obj/fakeBSP.o
 .data          0x00000000        0x0 All_Sec_ZigBit_Atmega1281_Rf212_8Mhz_Gcc/Obj/fakeBSP.o
 .bss           0x00000000        0x0 All_Sec_ZigBit_Atmega1281_Rf212_8Mhz_Gcc/Obj/fakeBSP.o
 .text.BSP_OpenJoystick
                0x00000000        0x0 All_Sec_ZigBit_Atmega1281_Rf212_8Mhz_Gcc/Obj/fakeBSP.o
 .text.BSP_CloseJoystick
                0x00000000        0x0 All_Sec_ZigBit_Atmega1281_Rf212_8Mhz_Gcc/Obj/fakeBSP.o
 .text.BSP_ReadJoystickState
                0x00000000        0x0 All_Sec_ZigBit_Atmega1281_Rf212_8Mhz_Gcc/Obj/fakeBSP.o
 .text.BSP_OpenBatterySensor
                0x00000000        0x0 All_Sec_ZigBit_Atmega1281_Rf212_8Mhz_Gcc/Obj/fakeBSP.o
 .text.BSP_CloseBatterySensor
                0x00000000        0x0 All_Sec_ZigBit_Atmega1281_Rf212_8Mhz_Gcc/Obj/fakeBSP.o
 .text.BSP_ReadBatteryData
                0x00000000        0x0 All_Sec_ZigBit_Atmega1281_Rf212_8Mhz_Gcc/Obj/fakeBSP.o
 .text          0x00000000        0x0 All_Sec_ZigBit_Atmega1281_Rf212_8Mhz_Gcc/Obj/bspTaskManager.o
 .data          0x00000000        0x0 All_Sec_ZigBit_Atmega1281_Rf212_8Mhz_Gcc/Obj/bspTaskManager.o
 .text          0x00000000        0x0 All_Sec_ZigBit_Atmega1281_Rf212_8Mhz_Gcc/Obj/csPersistentMem.o
 .data          0x00000000        0x0 All_Sec_ZigBit_Atmega1281_Rf212_8Mhz_Gcc/Obj/csPersistentMem.o
 .bss           0x00000000        0x0 All_Sec_ZigBit_Atmega1281_Rf212_8Mhz_Gcc/Obj/csPersistentMem.o
 .text          0x00000000        0x0 All_Sec_ZigBit_Atmega1281_Rf212_8Mhz_Gcc/Obj/csMem.o
 .bss           0x00000000        0x0 All_Sec_ZigBit_Atmega1281_Rf212_8Mhz_Gcc/Obj/csMem.o
 .text          0x00000000        0x0 All_Sec_ZigBit_Atmega1281_Rf212_8Mhz_Gcc/Obj/configServer.o
 .data          0x00000000        0x0 All_Sec_ZigBit_Atmega1281_Rf212_8Mhz_Gcc/Obj/configServer.o
 .bss           0x00000000        0x0 All_Sec_ZigBit_Atmega1281_Rf212_8Mhz_Gcc/Obj/configServer.o
 .text.CS_PdsDefaultValue
                0x00000000        0x0 All_Sec_ZigBit_Atmega1281_Rf212_8Mhz_Gcc/Obj/configServer.o
 .text          0x00000000        0x0 ./../../../../BitCloud/lib/libHAL_ZigBit_Atmega1281_8Mhz_Gcc.a(appTimer.o)
 .data          0x00000000        0x0 ./../../../../BitCloud/lib/libHAL_ZigBit_Atmega1281_8Mhz_Gcc.a(appTimer.o)
 .text          0x00000000        0x0 ./../../../../BitCloud/lib/libHAL_ZigBit_Atmega1281_8Mhz_Gcc.a(usart.o)
 .text.HAL_EnableDtrWakeUp
                0x00000000        0x0 ./../../../../BitCloud/lib/libHAL_ZigBit_Atmega1281_8Mhz_Gcc.a(usart.o)
 .text.HAL_DisableDtrWakeUp
                0x00000000        0x0 ./../../../../BitCloud/lib/libHAL_ZigBit_Atmega1281_8Mhz_Gcc.a(usart.o)
 .text.HAL_IsTxEmpty
                0x00000000        0x0 ./../../../../BitCloud/lib/libHAL_ZigBit_Atmega1281_8Mhz_Gcc.a(usart.o)
 .text.HAL_ReadUsartDtr
                0x00000000        0x0 ./../../../../BitCloud/lib/libHAL_ZigBit_Atmega1281_8Mhz_Gcc.a(usart.o)
 .text.HAL_ReadUsartRts
                0x00000000        0x0 ./../../../../BitCloud/lib/libHAL_ZigBit_Atmega1281_8Mhz_Gcc.a(usart.o)
 .text.HAL_OffUsartCts
                0x00000000        0x0 ./../../../../BitCloud/lib/libHAL_ZigBit_Atmega1281_8Mhz_Gcc.a(usart.o)
 .text.HAL_OnUsartCts
                0x00000000        0x0 ./../../../../BitCloud/lib/libHAL_ZigBit_Atmega1281_8Mhz_Gcc.a(usart.o)
 .text.HAL_ReadUsart
                0x00000000        0x0 ./../../../../BitCloud/lib/libHAL_ZigBit_Atmega1281_8Mhz_Gcc.a(usart.o)
 .text.HAL_CloseUsart
                0x00000000        0x0 ./../../../../BitCloud/lib/libHAL_ZigBit_Atmega1281_8Mhz_Gcc.a(usart.o)
 .text          0x00000000        0x0 ./../../../../BitCloud/lib/libHAL_ZigBit_Atmega1281_8Mhz_Gcc.a(irq.o)
 .data          0x00000000        0x0 ./../../../../BitCloud/lib/libHAL_ZigBit_Atmega1281_8Mhz_Gcc.a(irq.o)
 .bss           0x00000000        0x0 ./../../../../BitCloud/lib/libHAL_ZigBit_Atmega1281_8Mhz_Gcc.a(irq.o)
 .text.HAL_RegisterIrq
                0x00000000        0x0 ./../../../../BitCloud/lib/libHAL_ZigBit_Atmega1281_8Mhz_Gcc.a(irq.o)
 .text.HAL_DisableIrq
                0x00000000        0x0 ./../../../../BitCloud/lib/libHAL_ZigBit_Atmega1281_8Mhz_Gcc.a(irq.o)
 .text.HAL_UnregisterIrq
                0x00000000        0x0 ./../../../../BitCloud/lib/libHAL_ZigBit_Atmega1281_8Mhz_Gcc.a(irq.o)
 .text          0x00000000        0x0 ./../../../../BitCloud/lib/libHAL_ZigBit_Atmega1281_8Mhz_Gcc.a(i2cPacket.o)
 .data          0x00000000        0x0 ./../../../../BitCloud/lib/libHAL_ZigBit_Atmega1281_8Mhz_Gcc.a(i2cPacket.o)
 .text.HAL_OpenI2cPacket
                0x00000000        0x0 ./../../../../BitCloud/lib/libHAL_ZigBit_Atmega1281_8Mhz_Gcc.a(i2cPacket.o)
 .text          0x00000000        0x0 ./../../../../BitCloud/lib/libHAL_ZigBit_Atmega1281_8Mhz_Gcc.a(eeprom.o)
 .data          0x00000000        0x0 ./../../../../BitCloud/lib/libHAL_ZigBit_Atmega1281_8Mhz_Gcc.a(eeprom.o)
 .text          0x00000000        0x0 ./../../../../BitCloud/lib/libHAL_ZigBit_Atmega1281_8Mhz_Gcc.a(timer.o)
 .data          0x00000000        0x0 ./../../../../BitCloud/lib/libHAL_ZigBit_Atmega1281_8Mhz_Gcc.a(timer.o)
 .bss           0x00000000        0x0 ./../../../../BitCloud/lib/libHAL_ZigBit_Atmega1281_8Mhz_Gcc.a(timer.o)
 .text          0x00000000        0x0 ./../../../../BitCloud/lib/libHAL_ZigBit_Atmega1281_8Mhz_Gcc.a(halSleepTimerClock.o)
 .data          0x00000000        0x0 ./../../../../BitCloud/lib/libHAL_ZigBit_Atmega1281_8Mhz_Gcc.a(halSleepTimerClock.o)
 .text          0x00000000        0x0 ./../../../../BitCloud/lib/libHAL_ZigBit_Atmega1281_8Mhz_Gcc.a(halAppClock.o)
 .data          0x00000000        0x0 ./../../../../BitCloud/lib/libHAL_ZigBit_Atmega1281_8Mhz_Gcc.a(halAppClock.o)
 .text.halGetSystemTimeUs
                0x00000000        0x0 ./../../../../BitCloud/lib/libHAL_ZigBit_Atmega1281_8Mhz_Gcc.a(halAppClock.o)
 .text          0x00000000        0x0 ./../../../../BitCloud/lib/libHAL_ZigBit_Atmega1281_8Mhz_Gcc.a(halUsart.o)
 .data          0x00000000        0x0 ./../../../../BitCloud/lib/libHAL_ZigBit_Atmega1281_8Mhz_Gcc.a(halUsart.o)
 .bss           0x00000000        0x0 ./../../../../BitCloud/lib/libHAL_ZigBit_Atmega1281_8Mhz_Gcc.a(halUsart.o)
 .text          0x00000000        0x0 ./../../../../BitCloud/lib/libHAL_ZigBit_Atmega1281_8Mhz_Gcc.a(halIrq.o)
 .data          0x00000000        0x0 ./../../../../BitCloud/lib/libHAL_ZigBit_Atmega1281_8Mhz_Gcc.a(halIrq.o)
 .text.halClrIrqConfig
                0x00000000        0x0 ./../../../../BitCloud/lib/libHAL_ZigBit_Atmega1281_8Mhz_Gcc.a(halIrq.o)
 .text          0x00000000        0x0 ./../../../../BitCloud/lib/libHAL_ZigBit_Atmega1281_8Mhz_Gcc.a(halTwi.o)
 .data          0x00000000        0x0 ./../../../../BitCloud/lib/libHAL_ZigBit_Atmega1281_8Mhz_Gcc.a(halTwi.o)
 .bss           0x00000000        0x0 ./../../../../BitCloud/lib/libHAL_ZigBit_Atmega1281_8Mhz_Gcc.a(halTwi.o)
 .text.halInitI2c
                0x00000000        0x0 ./../../../../BitCloud/lib/libHAL_ZigBit_Atmega1281_8Mhz_Gcc.a(halTwi.o)
 .text          0x00000000        0x0 ./../../../../BitCloud/lib/libHAL_ZigBit_Atmega1281_8Mhz_Gcc.a(halEeprom.o)
 .data          0x00000000        0x0 ./../../../../BitCloud/lib/libHAL_ZigBit_Atmega1281_8Mhz_Gcc.a(halEeprom.o)
 .bss           0x00000000        0x0 ./../../../../BitCloud/lib/libHAL_ZigBit_Atmega1281_8Mhz_Gcc.a(halEeprom.o)
 .text          0x00000000        0x0 ./../../../../BitCloud/lib/libHAL_ZigBit_Atmega1281_8Mhz_Gcc.a(halSleep.o)
 .data          0x00000000        0x0 ./../../../../BitCloud/lib/libHAL_ZigBit_Atmega1281_8Mhz_Gcc.a(halSleep.o)
 .text.HAL_IdleMode
                0x00000000        0x0 ./../../../../BitCloud/lib/libHAL_ZigBit_Atmega1281_8Mhz_Gcc.a(halSleep.o)
 .text          0x00000000        0x0 ./../../../../BitCloud/lib/libHAL_ZigBit_Atmega1281_8Mhz_Gcc.a(calibration.o)
 .data          0x00000000        0x0 ./../../../../BitCloud/lib/libHAL_ZigBit_Atmega1281_8Mhz_Gcc.a(calibration.o)
 .bss           0x00000000        0x0 ./../../../../BitCloud/lib/libHAL_ZigBit_Atmega1281_8Mhz_Gcc.a(calibration.o)
 .text          0x00000000        0x0 ./../../../../BitCloud/lib/libHAL_ZigBit_Atmega1281_8Mhz_Gcc.a(halRfCtrl.o)
 .data          0x00000000        0x0 ./../../../../BitCloud/lib/libHAL_ZigBit_Atmega1281_8Mhz_Gcc.a(halRfCtrl.o)
 .bss           0x00000000        0x0 ./../../../../BitCloud/lib/libHAL_ZigBit_Atmega1281_8Mhz_Gcc.a(halRfCtrl.o)
 .text.HAL_MakeInRfSlpTr
                0x00000000        0x0 ./../../../../BitCloud/lib/libHAL_ZigBit_Atmega1281_8Mhz_Gcc.a(halRfCtrl.o)
 .text.HAL_MakeOutRfSlpTr
                0x00000000        0x0 ./../../../../BitCloud/lib/libHAL_ZigBit_Atmega1281_8Mhz_Gcc.a(halRfCtrl.o)
 .text.HAL_IsAmplifierUsed
                0x00000000        0x0 ./../../../../BitCloud/lib/libHAL_ZigBit_Atmega1281_8Mhz_Gcc.a(halRfCtrl.o)
 .data          0x00000000        0x0 ./../../../../BitCloud/lib/libHAL_ZigBit_Atmega1281_8Mhz_Gcc.a(halW1.o)
 .bss           0x00000000        0x0 ./../../../../BitCloud/lib/libHAL_ZigBit_Atmega1281_8Mhz_Gcc.a(halW1.o)
 .data          0x00000000        0x0 ./../../../../BitCloud/lib/libHAL_ZigBit_Atmega1281_8Mhz_Gcc.a(halCalibration.o)
 .bss           0x00000000        0x0 ./../../../../BitCloud/lib/libHAL_ZigBit_Atmega1281_8Mhz_Gcc.a(halCalibration.o)
 .text          0x00000000        0x0 ./../../../../BitCloud/lib/libHAL_ZigBit_Atmega1281_8Mhz_Gcc.a(halTaskManager.o)
 .data          0x00000000        0x0 ./../../../../BitCloud/lib/libHAL_ZigBit_Atmega1281_8Mhz_Gcc.a(halTaskManager.o)
 .text          0x00000000        0x0 ./../../../../BitCloud/lib/libHAL_ZigBit_Atmega1281_8Mhz_Gcc.a(adc.o)
 .data          0x00000000        0x0 ./../../../../BitCloud/lib/libHAL_ZigBit_Atmega1281_8Mhz_Gcc.a(adc.o)
 .text.HAL_OpenAdc
                0x00000000        0x0 ./../../../../BitCloud/lib/libHAL_ZigBit_Atmega1281_8Mhz_Gcc.a(adc.o)
 .text.HAL_ReadAdc
                0x00000000        0x0 ./../../../../BitCloud/lib/libHAL_ZigBit_Atmega1281_8Mhz_Gcc.a(adc.o)
 .text.HAL_CloseAdc
                0x00000000        0x0 ./../../../../BitCloud/lib/libHAL_ZigBit_Atmega1281_8Mhz_Gcc.a(adc.o)
 .text          0x00000000        0x0 ./../../../../BitCloud/lib/libHAL_ZigBit_Atmega1281_8Mhz_Gcc.a(sleep.o)
 .data          0x00000000        0x0 ./../../../../BitCloud/lib/libHAL_ZigBit_Atmega1281_8Mhz_Gcc.a(sleep.o)
 .text          0x00000000        0x0 ./../../../../BitCloud/lib/libHAL_ZigBit_Atmega1281_8Mhz_Gcc.a(halClkCtrl.o)
 .data          0x00000000        0x0 ./../../../../BitCloud/lib/libHAL_ZigBit_Atmega1281_8Mhz_Gcc.a(halClkCtrl.o)
 .text.HAL_ReadFreq
                0x00000000        0x0 ./../../../../BitCloud/lib/libHAL_ZigBit_Atmega1281_8Mhz_Gcc.a(halClkCtrl.o)
 .text          0x00000000        0x0 ./../../../../BitCloud/lib/libHAL_ZigBit_Atmega1281_8Mhz_Gcc.a(halAdc.o)
 .data          0x00000000        0x0 ./../../../../BitCloud/lib/libHAL_ZigBit_Atmega1281_8Mhz_Gcc.a(halAdc.o)
 .bss           0x00000000        0x0 ./../../../../BitCloud/lib/libHAL_ZigBit_Atmega1281_8Mhz_Gcc.a(halAdc.o)
 .text.halOpenAdc
                0x00000000        0x0 ./../../../../BitCloud/lib/libHAL_ZigBit_Atmega1281_8Mhz_Gcc.a(halAdc.o)
 .text.halStartAdc
                0x00000000        0x0 ./../../../../BitCloud/lib/libHAL_ZigBit_Atmega1281_8Mhz_Gcc.a(halAdc.o)
 .text.halCloseAdc
                0x00000000        0x0 ./../../../../BitCloud/lib/libHAL_ZigBit_Atmega1281_8Mhz_Gcc.a(halAdc.o)
 .progmem.data  0x00000000        0x0 ./../../../../BitCloud/lib/libHAL_ZigBit_Atmega1281_8Mhz_Gcc.a(halAdc.o)
 .text          0x00000000        0x0 ./../../../../BitCloud/lib/libHAL_ZigBit_Atmega1281_8Mhz_Gcc.a(halRfSpi.o)
 .data          0x00000000        0x0 ./../../../../BitCloud/lib/libHAL_ZigBit_Atmega1281_8Mhz_Gcc.a(halRfSpi.o)
 .bss           0x00000000        0x0 ./../../../../BitCloud/lib/libHAL_ZigBit_Atmega1281_8Mhz_Gcc.a(halRfSpi.o)
 .text          0x00000000        0x0 ./../../../../BitCloud/lib/libHAL_ZigBit_Atmega1281_8Mhz_Gcc.a(sleepTimer.o)
 .data          0x00000000        0x0 ./../../../../BitCloud/lib/libHAL_ZigBit_Atmega1281_8Mhz_Gcc.a(sleepTimer.o)
 .bss           0x00000000        0x0 ./../../../../BitCloud/lib/libHAL_ZigBit_Atmega1281_8Mhz_Gcc.a(sleepTimer.o)
 .text.HAL_StopSleepTimer
                0x00000000        0x0 ./../../../../BitCloud/lib/libHAL_ZigBit_Atmega1281_8Mhz_Gcc.a(sleepTimer.o)
 .text          0x00000000        0x0 ./../../../../BitCloud/lib/libBc_All_Sec_Atmega1281_Rf212_Gcc.a(nwk.o)
 .bss           0x00000000        0x0 ./../../../../BitCloud/lib/libBc_All_Sec_Atmega1281_Rf212_Gcc.a(nwk.o)
 .text.nwkAddressMacSetConf
                0x00000000        0x0 ./../../../../BitCloud/lib/libBc_All_Sec_Atmega1281_Rf212_Gcc.a(nwk.o)
 .text.NWK_SetShortAddr
                0x00000000        0x0 ./../../../../BitCloud/lib/libBc_All_Sec_Atmega1281_Rf212_Gcc.a(nwk.o)
 .text.NWK_AddGroup
                0x00000000        0x0 ./../../../../BitCloud/lib/libBc_All_Sec_Atmega1281_Rf212_Gcc.a(nwk.o)
 .text.NWK_RemoveGroup
                0x00000000        0x0 ./../../../../BitCloud/lib/libBc_All_Sec_Atmega1281_Rf212_Gcc.a(nwk.o)
 .text.NWK_RemoveAllGroups
                0x00000000        0x0 ./../../../../BitCloud/lib/libBc_All_Sec_Atmega1281_Rf212_Gcc.a(nwk.o)
 .text.NWK_GroupCapacity
                0x00000000        0x0 ./../../../../BitCloud/lib/libBc_All_Sec_Atmega1281_Rf212_Gcc.a(nwk.o)
 .text.NWK_NextGroup
                0x00000000        0x0 ./../../../../BitCloud/lib/libBc_All_Sec_Atmega1281_Rf212_Gcc.a(nwk.o)
 .text.NWK_GetUpdateId
                0x00000000        0x0 ./../../../../BitCloud/lib/libBc_All_Sec_Atmega1281_Rf212_Gcc.a(nwk.o)
 .text.NWK_SetSymLink
                0x00000000        0x0 ./../../../../BitCloud/lib/libBc_All_Sec_Atmega1281_Rf212_Gcc.a(nwk.o)
 .text.NWK_GetProtocolVersion
                0x00000000        0x0 ./../../../../BitCloud/lib/libBc_All_Sec_Atmega1281_Rf212_Gcc.a(nwk.o)
 .text.NWK_FindAnyRouteAtFirstTime
                0x00000000        0x0 ./../../../../BitCloud/lib/libBc_All_Sec_Atmega1281_Rf212_Gcc.a(nwk.o)
 .text.NWK_NextEDChild
                0x00000000        0x0 ./../../../../BitCloud/lib/libBc_All_Sec_Atmega1281_Rf212_Gcc.a(nwk.o)
 .text.NWK_GetNeighborsRssi
                0x00000000        0x0 ./../../../../BitCloud/lib/libBc_All_Sec_Atmega1281_Rf212_Gcc.a(nwk.o)
 .text.NWK_SetRejoinPermit
                0x00000000        0x0 ./../../../../BitCloud/lib/libBc_All_Sec_Atmega1281_Rf212_Gcc.a(nwk.o)
 .text.NWK_GetNextHop
                0x00000000        0x0 ./../../../../BitCloud/lib/libBc_All_Sec_Atmega1281_Rf212_Gcc.a(nwk.o)
 .text.NWK_SetFailRouteOrder
                0x00000000        0x0 ./../../../../BitCloud/lib/libBc_All_Sec_Atmega1281_Rf212_Gcc.a(nwk.o)
 .text.NWK_GetSecurityLevel
                0x00000000        0x0 ./../../../../BitCloud/lib/libBc_All_Sec_Atmega1281_Rf212_Gcc.a(nwk.o)
 .text.NWK_GetSecOutCounter
                0x00000000        0x0 ./../../../../BitCloud/lib/libBc_All_Sec_Atmega1281_Rf212_Gcc.a(nwk.o)
 .text.NWK_DeactivateKey
                0x00000000        0x0 ./../../../../BitCloud/lib/libBc_All_Sec_Atmega1281_Rf212_Gcc.a(nwk.o)
 .text.NWK_SetInFrameCounter
                0x00000000        0x0 ./../../../../BitCloud/lib/libBc_All_Sec_Atmega1281_Rf212_Gcc.a(nwk.o)
 .text          0x00000000        0x0 ./../../../../BitCloud/lib/libBc_All_Sec_Atmega1281_Rf212_Gcc.a(queue.o)
 .data          0x00000000        0x0 ./../../../../BitCloud/lib/libBc_All_Sec_Atmega1281_Rf212_Gcc.a(queue.o)
 .bss           0x00000000        0x0 ./../../../../BitCloud/lib/libBc_All_Sec_Atmega1281_Rf212_Gcc.a(queue.o)
 .text          0x00000000        0x0 ./../../../../BitCloud/lib/libBc_All_Sec_Atmega1281_Rf212_Gcc.a(sspManager.o)
 .data          0x00000000        0x0 ./../../../../BitCloud/lib/libBc_All_Sec_Atmega1281_Rf212_Gcc.a(sspManager.o)
 .bss           0x00000000        0x0 ./../../../../BitCloud/lib/libBc_All_Sec_Atmega1281_Rf212_Gcc.a(sspManager.o)
 .text          0x00000000        0x0 ./../../../../BitCloud/lib/libBc_All_Sec_Atmega1281_Rf212_Gcc.a(sspMem.o)
 .data          0x00000000        0x0 ./../../../../BitCloud/lib/libBc_All_Sec_Atmega1281_Rf212_Gcc.a(sspMem.o)
 .bss           0x00000000        0x0 ./../../../../BitCloud/lib/libBc_All_Sec_Atmega1281_Rf212_Gcc.a(sspMem.o)
 .text          0x00000000        0x0 ./../../../../BitCloud/lib/libBc_All_Sec_Atmega1281_Rf212_Gcc.a(sspSfpHandler.o)
 .data          0x00000000        0x0 ./../../../../BitCloud/lib/libBc_All_Sec_Atmega1281_Rf212_Gcc.a(sspSfpHandler.o)
 .bss           0x00000000        0x0 ./../../../../BitCloud/lib/libBc_All_Sec_Atmega1281_Rf212_Gcc.a(sspSfpHandler.o)
 .text          0x00000000        0x0 ./../../../../BitCloud/lib/libBc_All_Sec_Atmega1281_Rf212_Gcc.a(sysDuplicateTable.o)
 .data          0x00000000        0x0 ./../../../../BitCloud/lib/libBc_All_Sec_Atmega1281_Rf212_Gcc.a(sysDuplicateTable.o)
 .bss           0x00000000        0x0 ./../../../../BitCloud/lib/libBc_All_Sec_Atmega1281_Rf212_Gcc.a(sysDuplicateTable.o)
 .text          0x00000000        0x0 ./../../../../BitCloud/lib/libBc_All_Sec_Atmega1281_Rf212_Gcc.a(sysEvents.o)
 .data          0x00000000        0x0 ./../../../../BitCloud/lib/libBc_All_Sec_Atmega1281_Rf212_Gcc.a(sysEvents.o)
 .text.SYS_UnsubscribeFromEvent
                0x00000000        0x0 ./../../../../BitCloud/lib/libBc_All_Sec_Atmega1281_Rf212_Gcc.a(sysEvents.o)
 .text          0x00000000        0x0 ./../../../../BitCloud/lib/libBc_All_Sec_Atmega1281_Rf212_Gcc.a(taskManager.o)
 .text          0x00000000        0x0 ./../../../../BitCloud/lib/libBc_All_Sec_Atmega1281_Rf212_Gcc.a(tcTaskManager.o)
 .data          0x00000000        0x0 ./../../../../BitCloud/lib/libBc_All_Sec_Atmega1281_Rf212_Gcc.a(tcTaskManager.o)
 .bss           0x00000000        0x0 ./../../../../BitCloud/lib/libBc_All_Sec_Atmega1281_Rf212_Gcc.a(tcTaskManager.o)
 .text          0x00000000        0x0 ./../../../../BitCloud/lib/libBc_All_Sec_Atmega1281_Rf212_Gcc.a(zdo.o)
 .bss           0x00000000        0x0 ./../../../../BitCloud/lib/libBc_All_Sec_Atmega1281_Rf212_Gcc.a(zdo.o)
 .text.setTxPowerConf
                0x00000000        0x0 ./../../../../BitCloud/lib/libBc_All_Sec_Atmega1281_Rf212_Gcc.a(zdo.o)
 .text.ZDO_GetNwkStatus
                0x00000000        0x0 ./../../../../BitCloud/lib/libBc_All_Sec_Atmega1281_Rf212_Gcc.a(zdo.o)
 .text.ZDO_NotifyGeneral
                0x00000000        0x0 ./../../../../BitCloud/lib/libBc_All_Sec_Atmega1281_Rf212_Gcc.a(zdo.o)
 .text.ZDO_GetLqiRssi
                0x00000000        0x0 ./../../../../BitCloud/lib/libBc_All_Sec_Atmega1281_Rf212_Gcc.a(zdo.o)
 .text.ZDO_GetParentAddr
                0x00000000        0x0 ./../../../../BitCloud/lib/libBc_All_Sec_Atmega1281_Rf212_Gcc.a(zdo.o)
 .text.ZDO_GetChildrenAddr
                0x00000000        0x0 ./../../../../BitCloud/lib/libBc_All_Sec_Atmega1281_Rf212_Gcc.a(zdo.o)
 .text.ZDO_SetTxPowerReq
                0x00000000        0x0 ./../../../../BitCloud/lib/libBc_All_Sec_Atmega1281_Rf212_Gcc.a(zdo.o)
 .text.ZDO_GetNeibAmount
                0x00000000        0x0 ./../../../../BitCloud/lib/libBc_All_Sec_Atmega1281_Rf212_Gcc.a(zdo.o)
 .text.ZDO_GetNeibTable
                0x00000000        0x0 ./../../../../BitCloud/lib/libBc_All_Sec_Atmega1281_Rf212_Gcc.a(zdo.o)
 .text.ZDO_SleepReq
                0x00000000        0x0 ./../../../../BitCloud/lib/libBc_All_Sec_Atmega1281_Rf212_Gcc.a(zdo.o)
 .text.ZDO_WakeUpReq
                0x00000000        0x0 ./../../../../BitCloud/lib/libBc_All_Sec_Atmega1281_Rf212_Gcc.a(zdo.o)
 .text.ZDO_SoftwareResetReq
                0x00000000        0x0 ./../../../../BitCloud/lib/libBc_All_Sec_Atmega1281_Rf212_Gcc.a(zdo.o)
 .text.ZDO_ResetNetworkReq
                0x00000000        0x0 ./../../../../BitCloud/lib/libBc_All_Sec_Atmega1281_Rf212_Gcc.a(zdo.o)
 .text.zdoResetNetworkConf
                0x00000000        0x0 ./../../../../BitCloud/lib/libBc_All_Sec_Atmega1281_Rf212_Gcc.a(zdo.o)
 .text.ZDO_StartNetworkReq
                0x00000000        0x0 ./../../../../BitCloud/lib/libBc_All_Sec_Atmega1281_Rf212_Gcc.a(zdo.o)
 .text          0x00000000        0x0 ./../../../../BitCloud/lib/libBc_All_Sec_Atmega1281_Rf212_Gcc.a(aps.o)
 .text.APS_DeactivateBindRecords
                0x00000000        0x0 ./../../../../BitCloud/lib/libBc_All_Sec_Atmega1281_Rf212_Gcc.a(aps.o)
 .text.APS_ActivateBindRecords
                0x00000000        0x0 ./../../../../BitCloud/lib/libBc_All_Sec_Atmega1281_Rf212_Gcc.a(aps.o)
 .text.APS_NextBindingEntry
                0x00000000        0x0 ./../../../../BitCloud/lib/libBc_All_Sec_Atmega1281_Rf212_Gcc.a(aps.o)
 .text.APS_UnregisterEndpointReq
                0x00000000        0x0 ./../../../../BitCloud/lib/libBc_All_Sec_Atmega1281_Rf212_Gcc.a(aps.o)
 .text.APS_RegisterEndpointReq
                0x00000000        0x0 ./../../../../BitCloud/lib/libBc_All_Sec_Atmega1281_Rf212_Gcc.a(aps.o)
 .text.apsSetNoIndicationFlag
                0x00000000        0x0 ./../../../../BitCloud/lib/libBc_All_Sec_Atmega1281_Rf212_Gcc.a(aps.o)
 .text.APS_StopEndpointIndication
                0x00000000        0x0 ./../../../../BitCloud/lib/libBc_All_Sec_Atmega1281_Rf212_Gcc.a(aps.o)
 .text.APS_ResumeEndpointIndication
                0x00000000        0x0 ./../../../../BitCloud/lib/libBc_All_Sec_Atmega1281_Rf212_Gcc.a(aps.o)
 .text.APS_AddGroupReq
                0x00000000        0x0 ./../../../../BitCloud/lib/libBc_All_Sec_Atmega1281_Rf212_Gcc.a(aps.o)
 .text.APS_RemoveGroupReq
                0x00000000        0x0 ./../../../../BitCloud/lib/libBc_All_Sec_Atmega1281_Rf212_Gcc.a(aps.o)
 .text.APS_RemoveAllGroupsReq
                0x00000000        0x0 ./../../../../BitCloud/lib/libBc_All_Sec_Atmega1281_Rf212_Gcc.a(aps.o)
 .text.APS_IsStarted
                0x00000000        0x0 ./../../../../BitCloud/lib/libBc_All_Sec_Atmega1281_Rf212_Gcc.a(aps.o)
 .text          0x00000000        0x0 ./../../../../BitCloud/lib/libBc_All_Sec_Atmega1281_Rf212_Gcc.a(bcSysSleep.o)
 .data          0x00000000        0x0 ./../../../../BitCloud/lib/libBc_All_Sec_Atmega1281_Rf212_Gcc.a(bcSysSleep.o)
 .bss           0x00000000        0x0 ./../../../../BitCloud/lib/libBc_All_Sec_Atmega1281_Rf212_Gcc.a(bcSysSleep.o)
 .text          0x00000000        0x0 ./../../../../BitCloud/lib/libBc_All_Sec_Atmega1281_Rf212_Gcc.a(macenvPib.o)
 .data          0x00000000        0x0 ./../../../../BitCloud/lib/libBc_All_Sec_Atmega1281_Rf212_Gcc.a(macenvPib.o)
 .bss           0x00000000        0x0 ./../../../../BitCloud/lib/libBc_All_Sec_Atmega1281_Rf212_Gcc.a(macenvPib.o)
 .text          0x00000000        0x0 ./../../../../BitCloud/lib/libBc_All_Sec_Atmega1281_Rf212_Gcc.a(machwdManager.o)
 .data          0x00000000        0x0 ./../../../../BitCloud/lib/libBc_All_Sec_Atmega1281_Rf212_Gcc.a(machwdManager.o)
 .text.RF_RandomSeqReq
                0x00000000        0x0 ./../../../../BitCloud/lib/libBc_All_Sec_Atmega1281_Rf212_Gcc.a(machwdManager.o)
 .text.RF_CalibrationReq
                0x00000000        0x0 ./../../../../BitCloud/lib/libBc_All_Sec_Atmega1281_Rf212_Gcc.a(machwdManager.o)
 .text.RF_RegWriteReq
                0x00000000        0x0 ./../../../../BitCloud/lib/libBc_All_Sec_Atmega1281_Rf212_Gcc.a(machwdManager.o)
 .text.RF_RegReadReq
                0x00000000        0x0 ./../../../../BitCloud/lib/libBc_All_Sec_Atmega1281_Rf212_Gcc.a(machwdManager.o)
 .text          0x00000000        0x0 ./../../../../BitCloud/lib/libBc_All_Sec_Atmega1281_Rf212_Gcc.a(machwdRegAccessHandler.o)
 .data          0x00000000        0x0 ./../../../../BitCloud/lib/libBc_All_Sec_Atmega1281_Rf212_Gcc.a(machwdRegAccessHandler.o)
 .bss           0x00000000        0x0 ./../../../../BitCloud/lib/libBc_All_Sec_Atmega1281_Rf212_Gcc.a(machwdRegAccessHandler.o)
 .text          0x00000000        0x0 ./../../../../BitCloud/lib/libBc_All_Sec_Atmega1281_Rf212_Gcc.a(machwdResetHandler.o)
 .data          0x00000000        0x0 ./../../../../BitCloud/lib/libBc_All_Sec_Atmega1281_Rf212_Gcc.a(machwdResetHandler.o)
 .bss           0x00000000        0x0 ./../../../../BitCloud/lib/libBc_All_Sec_Atmega1281_Rf212_Gcc.a(machwdResetHandler.o)
 .text          0x00000000        0x0 ./../../../../BitCloud/lib/libBc_All_Sec_Atmega1281_Rf212_Gcc.a(machwdRndHandler.o)
 .data          0x00000000        0x0 ./../../../../BitCloud/lib/libBc_All_Sec_Atmega1281_Rf212_Gcc.a(machwdRndHandler.o)
 .bss           0x00000000        0x0 ./../../../../BitCloud/lib/libBc_All_Sec_Atmega1281_Rf212_Gcc.a(machwdRndHandler.o)
 .text          0x00000000        0x0 ./../../../../BitCloud/lib/libBc_All_Sec_Atmega1281_Rf212_Gcc.a(machwdRxBuffer.o)
 .data          0x00000000        0x0 ./../../../../BitCloud/lib/libBc_All_Sec_Atmega1281_Rf212_Gcc.a(machwdRxBuffer.o)
 .bss           0x00000000        0x0 ./../../../../BitCloud/lib/libBc_All_Sec_Atmega1281_Rf212_Gcc.a(machwdRxBuffer.o)
 .text          0x00000000        0x0 ./../../../../BitCloud/lib/libBc_All_Sec_Atmega1281_Rf212_Gcc.a(machwdRxFrameHandler.o)
 .data          0x00000000        0x0 ./../../../../BitCloud/lib/libBc_All_Sec_Atmega1281_Rf212_Gcc.a(machwdRxFrameHandler.o)
 .bss           0x00000000        0x0 ./../../../../BitCloud/lib/libBc_All_Sec_Atmega1281_Rf212_Gcc.a(machwdRxFrameHandler.o)
 .text          0x00000000        0x0 ./../../../../BitCloud/lib/libBc_All_Sec_Atmega1281_Rf212_Gcc.a(machwdSetHandler.o)
 .data          0x00000000        0x0 ./../../../../BitCloud/lib/libBc_All_Sec_Atmega1281_Rf212_Gcc.a(machwdSetHandler.o)
 .text.machwdIsBeaconRxMode
                0x00000000        0x0 ./../../../../BitCloud/lib/libBc_All_Sec_Atmega1281_Rf212_Gcc.a(machwdSetHandler.o)
 .text          0x00000000        0x0 ./../../../../BitCloud/lib/libBc_All_Sec_Atmega1281_Rf212_Gcc.a(machwdTrxCtrl.o)
 .bss           0x00000000        0x0 ./../../../../BitCloud/lib/libBc_All_Sec_Atmega1281_Rf212_Gcc.a(machwdTrxCtrl.o)
 .text          0x00000000        0x0 ./../../../../BitCloud/lib/libBc_All_Sec_Atmega1281_Rf212_Gcc.a(machwdTrxHandler.o)
 .data          0x00000000        0x0 ./../../../../BitCloud/lib/libBc_All_Sec_Atmega1281_Rf212_Gcc.a(machwdTrxHandler.o)
 .bss           0x00000000        0x0 ./../../../../BitCloud/lib/libBc_All_Sec_Atmega1281_Rf212_Gcc.a(machwdTrxHandler.o)
 .text          0x00000000        0x0 ./../../../../BitCloud/lib/libBc_All_Sec_Atmega1281_Rf212_Gcc.a(machwdTxFrameHandler.o)
 .bss           0x00000000        0x0 ./../../../../BitCloud/lib/libBc_All_Sec_Atmega1281_Rf212_Gcc.a(machwdTxFrameHandler.o)
 .text          0x00000000        0x0 ./../../../../BitCloud/lib/libBc_All_Sec_Atmega1281_Rf212_Gcc.a(machwiManager.o)
 .data          0x00000000        0x0 ./../../../../BitCloud/lib/libBc_All_Sec_Atmega1281_Rf212_Gcc.a(machwiManager.o)
 .bss           0x00000000        0x0 ./../../../../BitCloud/lib/libBc_All_Sec_Atmega1281_Rf212_Gcc.a(machwiManager.o)
 .text.MAC_OrphanResp
                0x00000000        0x0 ./../../../../BitCloud/lib/libBc_All_Sec_Atmega1281_Rf212_Gcc.a(machwiManager.o)
 .text.MAC_PurgeReq
                0x00000000        0x0 ./../../../../BitCloud/lib/libBc_All_Sec_Atmega1281_Rf212_Gcc.a(machwiManager.o)
 .text          0x00000000        0x0 ./../../../../BitCloud/lib/libBc_All_Sec_Atmega1281_Rf212_Gcc.a(machwiOrphanHandler.o)
 .data          0x00000000        0x0 ./../../../../BitCloud/lib/libBc_All_Sec_Atmega1281_Rf212_Gcc.a(machwiOrphanHandler.o)
 .bss           0x00000000        0x0 ./../../../../BitCloud/lib/libBc_All_Sec_Atmega1281_Rf212_Gcc.a(machwiOrphanHandler.o)
 .text          0x00000000        0x0 ./../../../../BitCloud/lib/libBc_All_Sec_Atmega1281_Rf212_Gcc.a(machwiPanServer.o)
 .data          0x00000000        0x0 ./../../../../BitCloud/lib/libBc_All_Sec_Atmega1281_Rf212_Gcc.a(machwiPanServer.o)
 .bss           0x00000000        0x0 ./../../../../BitCloud/lib/libBc_All_Sec_Atmega1281_Rf212_Gcc.a(machwiPanServer.o)
 .text          0x00000000        0x0 ./../../../../BitCloud/lib/libBc_All_Sec_Atmega1281_Rf212_Gcc.a(machwiPollHandler.o)
 .data          0x00000000        0x0 ./../../../../BitCloud/lib/libBc_All_Sec_Atmega1281_Rf212_Gcc.a(machwiPollHandler.o)
 .bss           0x00000000        0x0 ./../../../../BitCloud/lib/libBc_All_Sec_Atmega1281_Rf212_Gcc.a(machwiPollHandler.o)
 .text          0x00000000        0x0 ./../../../../BitCloud/lib/libBc_All_Sec_Atmega1281_Rf212_Gcc.a(machwiPurgeHandler.o)
 .data          0x00000000        0x0 ./../../../../BitCloud/lib/libBc_All_Sec_Atmega1281_Rf212_Gcc.a(machwiPurgeHandler.o)
 .bss           0x00000000        0x0 ./../../../../BitCloud/lib/libBc_All_Sec_Atmega1281_Rf212_Gcc.a(machwiPurgeHandler.o)
 .text          0x00000000        0x0 ./../../../../BitCloud/lib/libBc_All_Sec_Atmega1281_Rf212_Gcc.a(machwiResetHandler.o)
 .data          0x00000000        0x0 ./../../../../BitCloud/lib/libBc_All_Sec_Atmega1281_Rf212_Gcc.a(machwiResetHandler.o)
 .bss           0x00000000        0x0 ./../../../../BitCloud/lib/libBc_All_Sec_Atmega1281_Rf212_Gcc.a(machwiResetHandler.o)
 .text          0x00000000        0x0 ./../../../../BitCloud/lib/libBc_All_Sec_Atmega1281_Rf212_Gcc.a(machwiRxEnableHandler.o)
 .data          0x00000000        0x0 ./../../../../BitCloud/lib/libBc_All_Sec_Atmega1281_Rf212_Gcc.a(machwiRxEnableHandler.o)
 .bss           0x00000000        0x0 ./../../../../BitCloud/lib/libBc_All_Sec_Atmega1281_Rf212_Gcc.a(machwiRxEnableHandler.o)
 .text          0x00000000        0x0 ./../../../../BitCloud/lib/libBc_All_Sec_Atmega1281_Rf212_Gcc.a(machwiScanHandler.o)
 .data          0x00000000        0x0 ./../../../../BitCloud/lib/libBc_All_Sec_Atmega1281_Rf212_Gcc.a(machwiScanHandler.o)
 .text          0x00000000        0x0 ./../../../../BitCloud/lib/libBc_All_Sec_Atmega1281_Rf212_Gcc.a(machwiSetGetHandler.o)
 .bss           0x00000000        0x0 ./../../../../BitCloud/lib/libBc_All_Sec_Atmega1281_Rf212_Gcc.a(machwiSetGetHandler.o)
 .text          0x00000000        0x0 ./../../../../BitCloud/lib/libBc_All_Sec_Atmega1281_Rf212_Gcc.a(machwiStartHandler.o)
 .data          0x00000000        0x0 ./../../../../BitCloud/lib/libBc_All_Sec_Atmega1281_Rf212_Gcc.a(machwiStartHandler.o)
 .bss           0x00000000        0x0 ./../../../../BitCloud/lib/libBc_All_Sec_Atmega1281_Rf212_Gcc.a(machwiStartHandler.o)
 .text          0x00000000        0x0 ./../../../../BitCloud/lib/libBc_All_Sec_Atmega1281_Rf212_Gcc.a(machwiSwitchRxCtrl.o)
 .data          0x00000000        0x0 ./../../../../BitCloud/lib/libBc_All_Sec_Atmega1281_Rf212_Gcc.a(machwiSwitchRxCtrl.o)
 .bss           0x00000000        0x0 ./../../../../BitCloud/lib/libBc_All_Sec_Atmega1281_Rf212_Gcc.a(machwiSwitchRxCtrl.o)
 .text          0x00000000        0x0 ./../../../../BitCloud/lib/libBc_All_Sec_Atmega1281_Rf212_Gcc.a(machwiTransactionHandler.o)
 .data          0x00000000        0x0 ./../../../../BitCloud/lib/libBc_All_Sec_Atmega1281_Rf212_Gcc.a(machwiTransactionHandler.o)
 .bss           0x00000000        0x0 ./../../../../BitCloud/lib/libBc_All_Sec_Atmega1281_Rf212_Gcc.a(machwiTransactionHandler.o)
 .text          0x00000000        0x0 ./../../../../BitCloud/lib/libBc_All_Sec_Atmega1281_Rf212_Gcc.a(machwiTransactionQueue.o)
 .data          0x00000000        0x0 ./../../../../BitCloud/lib/libBc_All_Sec_Atmega1281_Rf212_Gcc.a(machwiTransactionQueue.o)
 .bss           0x00000000        0x0 ./../../../../BitCloud/lib/libBc_All_Sec_Atmega1281_Rf212_Gcc.a(machwiTransactionQueue.o)
 .text          0x00000000        0x0 ./../../../../BitCloud/lib/libBc_All_Sec_Atmega1281_Rf212_Gcc.a(mnUtils.o)
 .data          0x00000000        0x0 ./../../../../BitCloud/lib/libBc_All_Sec_Atmega1281_Rf212_Gcc.a(mnUtils.o)
 .bss           0x00000000        0x0 ./../../../../BitCloud/lib/libBc_All_Sec_Atmega1281_Rf212_Gcc.a(mnUtils.o)
 .text.SYS_Swap
                0x00000000        0x0 ./../../../../BitCloud/lib/libBc_All_Sec_Atmega1281_Rf212_Gcc.a(mnUtils.o)
 .text          0x00000000        0x0 ./../../../../BitCloud/lib/libBc_All_Sec_Atmega1281_Rf212_Gcc.a(phyInit.o)
 .data          0x00000000        0x0 ./../../../../BitCloud/lib/libBc_All_Sec_Atmega1281_Rf212_Gcc.a(phyInit.o)
 .bss           0x00000000        0x0 ./../../../../BitCloud/lib/libBc_All_Sec_Atmega1281_Rf212_Gcc.a(phyInit.o)
 .text          0x00000000        0x0 ./../../../../BitCloud/lib/libBc_All_Sec_Atmega1281_Rf212_Gcc.a(phyRegAccess.o)
 .data          0x00000000        0x0 ./../../../../BitCloud/lib/libBc_All_Sec_Atmega1281_Rf212_Gcc.a(phyRegAccess.o)
 .bss           0x00000000        0x0 ./../../../../BitCloud/lib/libBc_All_Sec_Atmega1281_Rf212_Gcc.a(phyRegAccess.o)
 .text          0x00000000        0x0 ./../../../../BitCloud/lib/libBc_All_Sec_Atmega1281_Rf212_Gcc.a(phyReset.o)
 .data          0x00000000        0x0 ./../../../../BitCloud/lib/libBc_All_Sec_Atmega1281_Rf212_Gcc.a(phyReset.o)
 .bss           0x00000000        0x0 ./../../../../BitCloud/lib/libBc_All_Sec_Atmega1281_Rf212_Gcc.a(phyReset.o)
 .text          0x00000000        0x0 ./../../../../BitCloud/lib/libBc_All_Sec_Atmega1281_Rf212_Gcc.a(phyRfSpiProto.o)
 .data          0x00000000        0x0 ./../../../../BitCloud/lib/libBc_All_Sec_Atmega1281_Rf212_Gcc.a(phyRfSpiProto.o)
 .bss           0x00000000        0x0 ./../../../../BitCloud/lib/libBc_All_Sec_Atmega1281_Rf212_Gcc.a(phyRfSpiProto.o)
 .text.phyStartReadFrame
                0x00000000        0x0 ./../../../../BitCloud/lib/libBc_All_Sec_Atmega1281_Rf212_Gcc.a(phyRfSpiProto.o)
 .text          0x00000000        0x0 ./../../../../BitCloud/lib/libBc_All_Sec_Atmega1281_Rf212_Gcc.a(phyRnd.o)
 .data          0x00000000        0x0 ./../../../../BitCloud/lib/libBc_All_Sec_Atmega1281_Rf212_Gcc.a(phyRnd.o)
 .bss           0x00000000        0x0 ./../../../../BitCloud/lib/libBc_All_Sec_Atmega1281_Rf212_Gcc.a(phyRnd.o)
 .text          0x00000000        0x0 ./../../../../BitCloud/lib/libBc_All_Sec_Atmega1281_Rf212_Gcc.a(phyRxFrame.o)
 .data          0x00000000        0x0 ./../../../../BitCloud/lib/libBc_All_Sec_Atmega1281_Rf212_Gcc.a(phyRxFrame.o)
 .bss           0x00000000        0x0 ./../../../../BitCloud/lib/libBc_All_Sec_Atmega1281_Rf212_Gcc.a(phyRxFrame.o)
 .text          0x00000000        0x0 ./../../../../BitCloud/lib/libBc_All_Sec_Atmega1281_Rf212_Gcc.a(phySet.o)
 .data          0x00000000        0x0 ./../../../../BitCloud/lib/libBc_All_Sec_Atmega1281_Rf212_Gcc.a(phySet.o)
 .bss           0x00000000        0x0 ./../../../../BitCloud/lib/libBc_All_Sec_Atmega1281_Rf212_Gcc.a(phySet.o)
 .text          0x00000000        0x0 ./../../../../BitCloud/lib/libBc_All_Sec_Atmega1281_Rf212_Gcc.a(phySetTrxState.o)
 .data          0x00000000        0x0 ./../../../../BitCloud/lib/libBc_All_Sec_Atmega1281_Rf212_Gcc.a(phySetTrxState.o)
 .bss           0x00000000        0x0 ./../../../../BitCloud/lib/libBc_All_Sec_Atmega1281_Rf212_Gcc.a(phySetTrxState.o)
 .text          0x00000000        0x0 ./../../../../BitCloud/lib/libBc_All_Sec_Atmega1281_Rf212_Gcc.a(phyStateMachine.o)
 .data          0x00000000        0x0 ./../../../../BitCloud/lib/libBc_All_Sec_Atmega1281_Rf212_Gcc.a(phyStateMachine.o)
 .bss           0x00000000        0x0 ./../../../../BitCloud/lib/libBc_All_Sec_Atmega1281_Rf212_Gcc.a(phyStateMachine.o)
 .text          0x00000000        0x0 ./../../../../BitCloud/lib/libBc_All_Sec_Atmega1281_Rf212_Gcc.a(phyTxFrame.o)
 .data          0x00000000        0x0 ./../../../../BitCloud/lib/libBc_All_Sec_Atmega1281_Rf212_Gcc.a(phyTxFrame.o)
 .bss           0x00000000        0x0 ./../../../../BitCloud/lib/libBc_All_Sec_Atmega1281_Rf212_Gcc.a(phyTxFrame.o)
 .text          0x00000000        0x0 ./../../../../BitCloud/lib/libBc_All_Sec_Atmega1281_Rf212_Gcc.a(sspCcmHandler.o)
 .data          0x00000000        0x0 ./../../../../BitCloud/lib/libBc_All_Sec_Atmega1281_Rf212_Gcc.a(sspCcmHandler.o)
 .bss           0x00000000        0x0 ./../../../../BitCloud/lib/libBc_All_Sec_Atmega1281_Rf212_Gcc.a(sspCcmHandler.o)
 .text          0x00000000        0x0 ./../../../../BitCloud/lib/libBc_All_Sec_Atmega1281_Rf212_Gcc.a(sysTimer.o)
 .data          0x00000000        0x0 ./../../../../BitCloud/lib/libBc_All_Sec_Atmega1281_Rf212_Gcc.a(sysTimer.o)
 .bss           0x00000000        0x0 ./../../../../BitCloud/lib/libBc_All_Sec_Atmega1281_Rf212_Gcc.a(sysTimer.o)
 .text          0x00000000        0x0 ./../../../../BitCloud/lib/libBc_All_Sec_Atmega1281_Rf212_Gcc.a(tcIndInput.o)
 .data          0x00000000        0x0 ./../../../../BitCloud/lib/libBc_All_Sec_Atmega1281_Rf212_Gcc.a(tcIndInput.o)
 .bss           0x00000000        0x0 ./../../../../BitCloud/lib/libBc_All_Sec_Atmega1281_Rf212_Gcc.a(tcIndInput.o)
 .text          0x00000000        0x0 ./../../../../BitCloud/lib/libBc_All_Sec_Atmega1281_Rf212_Gcc.a(tcKeyUpdateHandler.o)
 .data          0x00000000        0x0 ./../../../../BitCloud/lib/libBc_All_Sec_Atmega1281_Rf212_Gcc.a(tcKeyUpdateHandler.o)
 .bss           0x00000000        0x0 ./../../../../BitCloud/lib/libBc_All_Sec_Atmega1281_Rf212_Gcc.a(tcKeyUpdateHandler.o)
 .text.TC_KeyUpdateReq
                0x00000000        0x0 ./../../../../BitCloud/lib/libBc_All_Sec_Atmega1281_Rf212_Gcc.a(tcKeyUpdateHandler.o)
 .text          0x00000000        0x0 ./../../../../BitCloud/lib/libBc_All_Sec_Atmega1281_Rf212_Gcc.a(tcMem.o)
 .data          0x00000000        0x0 ./../../../../BitCloud/lib/libBc_All_Sec_Atmega1281_Rf212_Gcc.a(tcMem.o)
 .bss           0x00000000        0x0 ./../../../../BitCloud/lib/libBc_All_Sec_Atmega1281_Rf212_Gcc.a(tcMem.o)
 .text          0x00000000        0x0 ./../../../../BitCloud/lib/libBc_All_Sec_Atmega1281_Rf212_Gcc.a(tcRemoveHandler.o)
 .data          0x00000000        0x0 ./../../../../BitCloud/lib/libBc_All_Sec_Atmega1281_Rf212_Gcc.a(tcRemoveHandler.o)
 .bss           0x00000000        0x0 ./../../../../BitCloud/lib/libBc_All_Sec_Atmega1281_Rf212_Gcc.a(tcRemoveHandler.o)
 .text.TC_RemoveDeviceReq
                0x00000000        0x0 ./../../../../BitCloud/lib/libBc_All_Sec_Atmega1281_Rf212_Gcc.a(tcRemoveHandler.o)
 .text          0x00000000        0x0 ./../../../../BitCloud/lib/libBc_All_Sec_Atmega1281_Rf212_Gcc.a(tcResetHandler.o)
 .data          0x00000000        0x0 ./../../../../BitCloud/lib/libBc_All_Sec_Atmega1281_Rf212_Gcc.a(tcResetHandler.o)
 .bss           0x00000000        0x0 ./../../../../BitCloud/lib/libBc_All_Sec_Atmega1281_Rf212_Gcc.a(tcResetHandler.o)
 .text          0x00000000        0x0 ./../../../../BitCloud/lib/libBc_All_Sec_Atmega1281_Rf212_Gcc.a(macMem.o)
 .data          0x00000000        0x0 ./../../../../BitCloud/lib/libBc_All_Sec_Atmega1281_Rf212_Gcc.a(macMem.o)
 .bss           0x00000000        0x0 ./../../../../BitCloud/lib/libBc_All_Sec_Atmega1281_Rf212_Gcc.a(macMem.o)
 .text          0x00000000        0x0 ./../../../../BitCloud/lib/libBc_All_Sec_Atmega1281_Rf212_Gcc.a(machwdCalibHandler.o)
 .data          0x00000000        0x0 ./../../../../BitCloud/lib/libBc_All_Sec_Atmega1281_Rf212_Gcc.a(machwdCalibHandler.o)
 .bss           0x00000000        0x0 ./../../../../BitCloud/lib/libBc_All_Sec_Atmega1281_Rf212_Gcc.a(machwdCalibHandler.o)
 .text          0x00000000        0x0 ./../../../../BitCloud/lib/libBc_All_Sec_Atmega1281_Rf212_Gcc.a(machwdEdHandler.o)
 .data          0x00000000        0x0 ./../../../../BitCloud/lib/libBc_All_Sec_Atmega1281_Rf212_Gcc.a(machwdEdHandler.o)
 .bss           0x00000000        0x0 ./../../../../BitCloud/lib/libBc_All_Sec_Atmega1281_Rf212_Gcc.a(machwdEdHandler.o)
 .text          0x00000000        0x0 ./../../../../BitCloud/lib/libBc_All_Sec_Atmega1281_Rf212_Gcc.a(machwdEncryptHandler.o)
 .data          0x00000000        0x0 ./../../../../BitCloud/lib/libBc_All_Sec_Atmega1281_Rf212_Gcc.a(machwdEncryptHandler.o)
 .bss           0x00000000        0x0 ./../../../../BitCloud/lib/libBc_All_Sec_Atmega1281_Rf212_Gcc.a(machwdEncryptHandler.o)
 .text          0x00000000        0x0 ./../../../../BitCloud/lib/libBc_All_Sec_Atmega1281_Rf212_Gcc.a(machwdFrameRoutine.o)
 .bss           0x00000000        0x0 ./../../../../BitCloud/lib/libBc_All_Sec_Atmega1281_Rf212_Gcc.a(machwdFrameRoutine.o)
 .text          0x00000000        0x0 ./../../../../BitCloud/lib/libBc_All_Sec_Atmega1281_Rf212_Gcc.a(machwdHandlerCtrl.o)
 .data          0x00000000        0x0 ./../../../../BitCloud/lib/libBc_All_Sec_Atmega1281_Rf212_Gcc.a(machwdHandlerCtrl.o)
 .bss           0x00000000        0x0 ./../../../../BitCloud/lib/libBc_All_Sec_Atmega1281_Rf212_Gcc.a(machwdHandlerCtrl.o)
 .text          0x00000000        0x0 ./../../../../BitCloud/lib/libBc_All_Sec_Atmega1281_Rf212_Gcc.a(machwiAssociateHandler.o)
 .data          0x00000000        0x0 ./../../../../BitCloud/lib/libBc_All_Sec_Atmega1281_Rf212_Gcc.a(machwiAssociateHandler.o)
 .bss           0x00000000        0x0 ./../../../../BitCloud/lib/libBc_All_Sec_Atmega1281_Rf212_Gcc.a(machwiAssociateHandler.o)
 .text          0x00000000        0x0 ./../../../../BitCloud/lib/libBc_All_Sec_Atmega1281_Rf212_Gcc.a(machwiBeaconHandler.o)
 .data          0x00000000        0x0 ./../../../../BitCloud/lib/libBc_All_Sec_Atmega1281_Rf212_Gcc.a(machwiBeaconHandler.o)
 .bss           0x00000000        0x0 ./../../../../BitCloud/lib/libBc_All_Sec_Atmega1281_Rf212_Gcc.a(machwiBeaconHandler.o)
 .text          0x00000000        0x0 ./../../../../BitCloud/lib/libBc_All_Sec_Atmega1281_Rf212_Gcc.a(machwiDataHandler.o)
 .bss           0x00000000        0x0 ./../../../../BitCloud/lib/libBc_All_Sec_Atmega1281_Rf212_Gcc.a(machwiDataHandler.o)
 .text          0x00000000        0x0 ./../../../../BitCloud/lib/libBc_All_Sec_Atmega1281_Rf212_Gcc.a(phyCalib.o)
 .data          0x00000000        0x0 ./../../../../BitCloud/lib/libBc_All_Sec_Atmega1281_Rf212_Gcc.a(phyCalib.o)
 .bss           0x00000000        0x0 ./../../../../BitCloud/lib/libBc_All_Sec_Atmega1281_Rf212_Gcc.a(phyCalib.o)
 .text          0x00000000        0x0 ./../../../../BitCloud/lib/libBc_All_Sec_Atmega1281_Rf212_Gcc.a(phyEd.o)
 .data          0x00000000        0x0 ./../../../../BitCloud/lib/libBc_All_Sec_Atmega1281_Rf212_Gcc.a(phyEd.o)
 .bss           0x00000000        0x0 ./../../../../BitCloud/lib/libBc_All_Sec_Atmega1281_Rf212_Gcc.a(phyEd.o)
 .text          0x00000000        0x0 ./../../../../BitCloud/lib/libBc_All_Sec_Atmega1281_Rf212_Gcc.a(phyEncrypt.o)
 .data          0x00000000        0x0 ./../../../../BitCloud/lib/libBc_All_Sec_Atmega1281_Rf212_Gcc.a(phyEncrypt.o)
 .bss           0x00000000        0x0 ./../../../../BitCloud/lib/libBc_All_Sec_Atmega1281_Rf212_Gcc.a(phyEncrypt.o)
 .text          0x00000000        0x0 ./../../../../BitCloud/lib/libBc_All_Sec_Atmega1281_Rf212_Gcc.a(phyRtimerIrqDispatcher.o)
 .data          0x00000000        0x0 ./../../../../BitCloud/lib/libBc_All_Sec_Atmega1281_Rf212_Gcc.a(phyRtimerIrqDispatcher.o)
 .bss           0x00000000        0x0 ./../../../../BitCloud/lib/libBc_All_Sec_Atmega1281_Rf212_Gcc.a(phyRtimerIrqDispatcher.o)
 .text          0x00000000        0x0 ./../../../../BitCloud/lib/libBc_All_Sec_Atmega1281_Rf212_Gcc.a(tcAuthenticHandler.o)
 .data          0x00000000        0x0 ./../../../../BitCloud/lib/libBc_All_Sec_Atmega1281_Rf212_Gcc.a(tcAuthenticHandler.o)
 .bss           0x00000000        0x0 ./../../../../BitCloud/lib/libBc_All_Sec_Atmega1281_Rf212_Gcc.a(tcAuthenticHandler.o)
 .text          0x00000000        0x0 ./../../../../BitCloud/lib/WdtInitatmega1281_Gcc.o
 .data          0x00000000        0x0 ./../../../../BitCloud/lib/WdtInitatmega1281_Gcc.o
 .bss           0x00000000        0x0 ./../../../../BitCloud/lib/WdtInitatmega1281_Gcc.o
 .text          0x00000000        0x0 ./../../../../BitCloud/lib/libHAL_ZigBit_Atmega1281_8Mhz_Gcc.a(halInit.o)
 .data          0x00000000        0x0 ./../../../../BitCloud/lib/libHAL_ZigBit_Atmega1281_8Mhz_Gcc.a(halInit.o)
 .bss           0x00000000        0x0 ./../../../../BitCloud/lib/libHAL_ZigBit_Atmega1281_8Mhz_Gcc.a(halInit.o)
 .text          0x00000000        0x0 ./../../../../BitCloud/lib/libHAL_ZigBit_Atmega1281_8Mhz_Gcc.a(halUid.o)
 .data          0x00000000        0x0 ./../../../../BitCloud/lib/libHAL_ZigBit_Atmega1281_8Mhz_Gcc.a(halUid.o)
 .text          0x00000000        0x0 ./../../../../BitCloud/lib/libHAL_ZigBit_Atmega1281_8Mhz_Gcc.a(halMacIsr.o)
 .data          0x00000000        0x0 ./../../../../BitCloud/lib/libHAL_ZigBit_Atmega1281_8Mhz_Gcc.a(halMacIsr.o)
 .bss           0x00000000        0x0 ./../../../../BitCloud/lib/libHAL_ZigBit_Atmega1281_8Mhz_Gcc.a(halMacIsr.o)
 .text          0x00000000        0x0 ./../../../../BitCloud/lib/libHAL_ZigBit_Atmega1281_8Mhz_Gcc.a(halAtmelUid.o)
 .data          0x00000000        0x0 ./../../../../BitCloud/lib/libHAL_ZigBit_Atmega1281_8Mhz_Gcc.a(halAtmelUid.o)
 .bss           0x00000000        0x0 ./../../../../BitCloud/lib/libHAL_ZigBit_Atmega1281_8Mhz_Gcc.a(halAtmelUid.o)
 .text          0x00000000        0x0 ./../../../../BitCloud/lib/libHAL_ZigBit_Atmega1281_8Mhz_Gcc.a(w1.o)
 .data          0x00000000        0x0 ./../../../../BitCloud/lib/libHAL_ZigBit_Atmega1281_8Mhz_Gcc.a(w1.o)
 .text.HAL_AlarmSearchW1Device
                0x00000000        0x0 ./../../../../BitCloud/lib/libHAL_ZigBit_Atmega1281_8Mhz_Gcc.a(w1.o)
 .text.HAL_ResetW1
                0x00000000        0x0 ./../../../../BitCloud/lib/libHAL_ZigBit_Atmega1281_8Mhz_Gcc.a(w1.o)
 .text.HAL_WriteW1
                0x00000000        0x0 ./../../../../BitCloud/lib/libHAL_ZigBit_Atmega1281_8Mhz_Gcc.a(w1.o)
 .text.HAL_ReadW1
                0x00000000        0x0 ./../../../../BitCloud/lib/libHAL_ZigBit_Atmega1281_8Mhz_Gcc.a(w1.o)
 .text          0x00000000        0x0 ./../../../../BitCloud/lib/libBc_All_Sec_Atmega1281_Rf212_Gcc.a(phyRfIrqDispatcher.o)
 .data          0x00000000        0x0 ./../../../../BitCloud/lib/libBc_All_Sec_Atmega1281_Rf212_Gcc.a(phyRfIrqDispatcher.o)
 .bss           0x00000000        0x0 ./../../../../BitCloud/lib/libBc_All_Sec_Atmega1281_Rf212_Gcc.a(phyRfIrqDispatcher.o)
 .text          0x00000000        0x0 c:/winavr-20100110/bin/../lib/gcc/avr/4.3.3/avr51\libgcc.a(_mulsi3.o)
 .data          0x00000000        0x0 c:/winavr-20100110/bin/../lib/gcc/avr/4.3.3/avr51\libgcc.a(_mulsi3.o)
 .bss           0x00000000        0x0 c:/winavr-20100110/bin/../lib/gcc/avr/4.3.3/avr51\libgcc.a(_mulsi3.o)
 .text          0x00000000        0x0 c:/winavr-20100110/bin/../lib/gcc/avr/4.3.3/avr51\libgcc.a(_udivmodqi4.o)
 .data          0x00000000        0x0 c:/winavr-20100110/bin/../lib/gcc/avr/4.3.3/avr51\libgcc.a(_udivmodqi4.o)
 .bss           0x00000000        0x0 c:/winavr-20100110/bin/../lib/gcc/avr/4.3.3/avr51\libgcc.a(_udivmodqi4.o)
 .text          0x00000000        0x0 c:/winavr-20100110/bin/../lib/gcc/avr/4.3.3/avr51\libgcc.a(_udivmodhi4.o)
 .data          0x00000000        0x0 c:/winavr-20100110/bin/../lib/gcc/avr/4.3.3/avr51\libgcc.a(_udivmodhi4.o)
 .bss           0x00000000        0x0 c:/winavr-20100110/bin/../lib/gcc/avr/4.3.3/avr51\libgcc.a(_udivmodhi4.o)
 .text          0x00000000        0x0 c:/winavr-20100110/bin/../lib/gcc/avr/4.3.3/avr51\libgcc.a(_divmodhi4.o)
 .data          0x00000000        0x0 c:/winavr-20100110/bin/../lib/gcc/avr/4.3.3/avr51\libgcc.a(_divmodhi4.o)
 .bss           0x00000000        0x0 c:/winavr-20100110/bin/../lib/gcc/avr/4.3.3/avr51\libgcc.a(_divmodhi4.o)
 .text          0x00000000        0x0 c:/winavr-20100110/bin/../lib/gcc/avr/4.3.3/avr51\libgcc.a(_udivmodsi4.o)
 .data          0x00000000        0x0 c:/winavr-20100110/bin/../lib/gcc/avr/4.3.3/avr51\libgcc.a(_udivmodsi4.o)
 .bss           0x00000000        0x0 c:/winavr-20100110/bin/../lib/gcc/avr/4.3.3/avr51\libgcc.a(_udivmodsi4.o)
 .text          0x00000000        0x0 c:/winavr-20100110/bin/../lib/gcc/avr/4.3.3/avr51\libgcc.a(_prologue.o)
 .data          0x00000000        0x0 c:/winavr-20100110/bin/../lib/gcc/avr/4.3.3/avr51\libgcc.a(_prologue.o)
 .bss           0x00000000        0x0 c:/winavr-20100110/bin/../lib/gcc/avr/4.3.3/avr51\libgcc.a(_prologue.o)
 .text          0x00000000        0x0 c:/winavr-20100110/bin/../lib/gcc/avr/4.3.3/avr51\libgcc.a(_epilogue.o)
 .data          0x00000000        0x0 c:/winavr-20100110/bin/../lib/gcc/avr/4.3.3/avr51\libgcc.a(_epilogue.o)
 .bss           0x00000000        0x0 c:/winavr-20100110/bin/../lib/gcc/avr/4.3.3/avr51\libgcc.a(_epilogue.o)
 .text          0x00000000        0x0 c:/winavr-20100110/bin/../lib/gcc/avr/4.3.3/avr51\libgcc.a(_exit.o)
 .data          0x00000000        0x0 c:/winavr-20100110/bin/../lib/gcc/avr/4.3.3/avr51\libgcc.a(_exit.o)
 .bss           0x00000000        0x0 c:/winavr-20100110/bin/../lib/gcc/avr/4.3.3/avr51\libgcc.a(_exit.o)
 .text.libgcc   0x00000000        0x0 c:/winavr-20100110/bin/../lib/gcc/avr/4.3.3/avr51\libgcc.a(_exit.o)
 .fini9         0x00000000        0x0 c:/winavr-20100110/bin/../lib/gcc/avr/4.3.3/avr51\libgcc.a(_exit.o)
 .fini0         0x00000000        0x0 c:/winavr-20100110/bin/../lib/gcc/avr/4.3.3/avr51\libgcc.a(_exit.o)
 .text          0x00000000        0x0 c:/winavr-20100110/bin/../lib/gcc/avr/4.3.3/avr51\libgcc.a(_tablejump.o)
 .data          0x00000000        0x0 c:/winavr-20100110/bin/../lib/gcc/avr/4.3.3/avr51\libgcc.a(_tablejump.o)
 .bss           0x00000000        0x0 c:/winavr-20100110/bin/../lib/gcc/avr/4.3.3/avr51\libgcc.a(_tablejump.o)
 .text          0x00000000        0x0 c:/winavr-20100110/bin/../lib/gcc/avr/4.3.3/avr51\libgcc.a(_clear_bss.o)
 .data          0x00000000        0x0 c:/winavr-20100110/bin/../lib/gcc/avr/4.3.3/avr51\libgcc.a(_clear_bss.o)
 .bss           0x00000000        0x0 c:/winavr-20100110/bin/../lib/gcc/avr/4.3.3/avr51\libgcc.a(_clear_bss.o)
 .text.libgcc   0x00000000        0x0 c:/winavr-20100110/bin/../lib/gcc/avr/4.3.3/avr51\libgcc.a(_clear_bss.o)
 .data          0x00000000        0x0 c:/winavr-20100110/bin/../lib/gcc/avr/4.3.3/avr51\libgcc.a(_lshrdi3.o)
 .bss           0x00000000        0x0 c:/winavr-20100110/bin/../lib/gcc/avr/4.3.3/avr51\libgcc.a(_lshrdi3.o)
 .data          0x00000000        0x0 c:/winavr-20100110/bin/../lib/gcc/avr/4.3.3/avr51\libgcc.a(_ashldi3.o)
 .bss           0x00000000        0x0 c:/winavr-20100110/bin/../lib/gcc/avr/4.3.3/avr51\libgcc.a(_ashldi3.o)
 .text          0x00000000        0x0 c:/winavr-20100110/bin/../lib/gcc/avr/4.3.3/../../../../avr/lib/avr51\libc.a(rand.o)
 .bss           0x00000000        0x0 c:/winavr-20100110/bin/../lib/gcc/avr/4.3.3/../../../../avr/lib/avr51\libc.a(rand.o)
 .text          0x00000000        0x0 c:/winavr-20100110/bin/../lib/gcc/avr/4.3.3/../../../../avr/lib/avr51\libc.a(memcpy_P.o)
 .data          0x00000000        0x0 c:/winavr-20100110/bin/../lib/gcc/avr/4.3.3/../../../../avr/lib/avr51\libc.a(memcpy_P.o)
 .bss           0x00000000        0x0 c:/winavr-20100110/bin/../lib/gcc/avr/4.3.3/../../../../avr/lib/avr51\libc.a(memcpy_P.o)
 .text          0x00000000        0x0 c:/winavr-20100110/bin/../lib/gcc/avr/4.3.3/../../../../avr/lib/avr51\libc.a(memcmp.o)
 .data          0x00000000        0x0 c:/winavr-20100110/bin/../lib/gcc/avr/4.3.3/../../../../avr/lib/avr51\libc.a(memcmp.o)
 .bss           0x00000000        0x0 c:/winavr-20100110/bin/../lib/gcc/avr/4.3.3/../../../../avr/lib/avr51\libc.a(memcmp.o)
 .text          0x00000000        0x0 c:/winavr-20100110/bin/../lib/gcc/avr/4.3.3/../../../../avr/lib/avr51\libc.a(memcpy.o)
 .data          0x00000000        0x0 c:/winavr-20100110/bin/../lib/gcc/avr/4.3.3/../../../../avr/lib/avr51\libc.a(memcpy.o)
 .bss           0x00000000        0x0 c:/winavr-20100110/bin/../lib/gcc/avr/4.3.3/../../../../avr/lib/avr51\libc.a(memcpy.o)
 .text          0x00000000        0x0 c:/winavr-20100110/bin/../lib/gcc/avr/4.3.3/../../../../avr/lib/avr51\libc.a(memmove.o)
 .data          0x00000000        0x0 c:/winavr-20100110/bin/../lib/gcc/avr/4.3.3/../../../../avr/lib/avr51\libc.a(memmove.o)
 .bss           0x00000000        0x0 c:/winavr-20100110/bin/../lib/gcc/avr/4.3.3/../../../../avr/lib/avr51\libc.a(memmove.o)
 .text          0x00000000        0x0 c:/winavr-20100110/bin/../lib/gcc/avr/4.3.3/../../../../avr/lib/avr51\libc.a(memset.o)
 .data          0x00000000        0x0 c:/winavr-20100110/bin/../lib/gcc/avr/4.3.3/../../../../avr/lib/avr51\libc.a(memset.o)
 .bss           0x00000000        0x0 c:/winavr-20100110/bin/../lib/gcc/avr/4.3.3/../../../../avr/lib/avr51\libc.a(memset.o)
 .text          0x00000000        0x0 c:/winavr-20100110/bin/../lib/gcc/avr/4.3.3/avr51\libgcc.a(_divmodsi4.o)
 .data          0x00000000        0x0 c:/winavr-20100110/bin/../lib/gcc/avr/4.3.3/avr51\libgcc.a(_divmodsi4.o)
 .bss           0x00000000        0x0 c:/winavr-20100110/bin/../lib/gcc/avr/4.3.3/avr51\libgcc.a(_divmodsi4.o)

Memory Configuration

Name             Origin             Length             Attributes
text             0x00000000         0x00020000         xr
data             0x00800200         0x00001e0c         rw !x
eeprom           0x00810000         0x00001000         rw !x
*default*        0x00000000         0xffffffff

Linker script and memory map

Address of section .data set to 0x800200
LOAD c:/winavr-20100110/bin/../lib/gcc/avr/4.3.3/../../../../avr/lib/avr51/crtm1281.o

.text           0x00000000    0x1ab8e
                0x00000000                PROVIDE (__text_start, .)
 *(.vectors)
 .vectors       0x00000000       0xcc c:/winavr-20100110/bin/../lib/gcc/avr/4.3.3/../../../../avr/lib/avr51/crtm1281.o
                0x00000000                __vectors
                0x00000000                __vector_default
 *(.vectors)
                0x000000cc                PROVIDE (__pds_ff_start, .)
 *(.pds_ff)
 .pds_ff        0x000000cc       0xa8 All_Sec_ZigBit_Atmega1281_Rf212_8Mhz_Gcc/Obj/csPersistentMem.o
                0x00000168                csNwkSecurityFileDescriptors
                0x00000162                csBindingTableFileDescriptor
                0x0000015c                csGroupTableFileDescriptor
                0x00000156                csNeighborTableFileDescriptor
                0x000000cc                csGeneralFileDescriptors
                0x0000013e                csExtendedFileDescriptors
                0x00000174                PROVIDE (__pds_ff_end, .)
                0x00000174                PROVIDE (__pds_fd_start, .)
 *(.pds_fd)
 .pds_fd        0x00000174       0x24 All_Sec_ZigBit_Atmega1281_Rf212_8Mhz_Gcc/Obj/csPersistentMem.o
                0x00000180                csNwkSecurityTablesDirDescr
                0x00000174                csGeneralParamsDirDescr
                0x00000186                BCSystemDirDescr
                0x0000018c                BCExtGenParamsDirDescr
                0x00000192                BCRejoinParamsDirDescr
                0x0000017a                csExtendedParamsDirDescr
                0x00000198                PROVIDE (__pds_fd_end, .)
 *(.progmem.gcc*)
 .progmem.gcc_sw_table
                0x00000198       0x56 ./../../../../BitCloud/lib/libBc_All_Sec_Atmega1281_Rf212_Gcc.a(nwk.o)
 .progmem.gcc_sw_table
                0x000001ee       0x58 ./../../../../BitCloud/lib/libBc_All_Sec_Atmega1281_Rf212_Gcc.a(zdo.o)
 .progmem.gcc_sw_table
                0x00000246      0x110 ./../../../../BitCloud/lib/libBc_All_Sec_Atmega1281_Rf212_Gcc.a(macenvPib.o)
 .progmem.gcc_sw_table
                0x00000356       0x24 ./../../../../BitCloud/lib/libBc_All_Sec_Atmega1281_Rf212_Gcc.a(machwdManager.o)
 .progmem.gcc_sw_table
                0x0000037a       0x3c ./../../../../BitCloud/lib/libBc_All_Sec_Atmega1281_Rf212_Gcc.a(machwiManager.o)
 .progmem.gcc_sw_table
                0x000003b6       0x16 ./../../../../BitCloud/lib/libBc_All_Sec_Atmega1281_Rf212_Gcc.a(machwiPanServer.o)
 .progmem.gcc_sw_table
                0x000003cc       0x20 ./../../../../BitCloud/lib/libBc_All_Sec_Atmega1281_Rf212_Gcc.a(machwiScanHandler.o)
 .progmem.gcc_sw_table
                0x000003ec       0x18 ./../../../../BitCloud/lib/libBc_All_Sec_Atmega1281_Rf212_Gcc.a(sspCcmHandler.o)
 .progmem.gcc_sw_table
                0x00000404       0x26 ./../../../../BitCloud/lib/libBc_All_Sec_Atmega1281_Rf212_Gcc.a(machwdFrameRoutine.o)
 *(.progmem*)
 .progmem.data  0x0000042a      0x181 All_Sec_ZigBit_Atmega1281_Rf212_8Mhz_Gcc/Obj/tsl2550.o
                0x000004ab                tsl2550Count
                0x0000042a                tsl2550Ratio
 .progmem.data  0x000005ab       0xc4 All_Sec_ZigBit_Atmega1281_Rf212_8Mhz_Gcc/Obj/csPersistentMem.o
                0x00000643                BCRejoinParamsMemoryIdsTable
                0x000005ab                CsGeneralMemoryIdsTable
                0x000005d9                CsNwkSecurityMemoryIdsTable
                0x000005dd                BCSystemMemoryIdsTable
                0x00000615                BCExtGenParamsMemoryIdsTable
                0x000005d1                CsExtendedMemoryIdsTable
 .progmem.data  0x0000066f      0x2b4 All_Sec_ZigBit_Atmega1281_Rf212_8Mhz_Gcc/Obj/csMem.o
                0x0000079b                csMemoryItems
                0x000006fd                defaultZIB
                0x0000072c                defaultAIB
                0x0000066f                defaultNIB
                0x00000777                csReadOnlyItems
                0x00000738                defaultSIB
 .progmem.data  0x00000923        0xc ./../../../../BitCloud/lib/libHAL_ZigBit_Atmega1281_8Mhz_Gcc.a(usart.o)
 .progmem.data  0x0000092f      0x132 ./../../../../BitCloud/lib/libBc_All_Sec_Atmega1281_Rf212_Gcc.a(nwk.o)
 .progmem.data  0x00000a61        0x4 ./../../../../BitCloud/lib/libBc_All_Sec_Atmega1281_Rf212_Gcc.a(sspManager.o)
                0x00000a61                sspHandlers
 .progmem.data  0x00000a65        0x4 ./../../../../BitCloud/lib/libBc_All_Sec_Atmega1281_Rf212_Gcc.a(sspSfpHandler.o)
                0x00000a65                secLevelLenM
 .progmem.data  0x00000a69        0x4 ./../../../../BitCloud/lib/libBc_All_Sec_Atmega1281_Rf212_Gcc.a(tcTaskManager.o)
 .progmem.data  0x00000a6d       0x2e ./../../../../BitCloud/lib/libBc_All_Sec_Atmega1281_Rf212_Gcc.a(aps.o)
 .progmem.data  0x00000a9b       0x3b ./../../../../BitCloud/lib/libBc_All_Sec_Atmega1281_Rf212_Gcc.a(phySet.o)
                0x00000ad6                . = ALIGN (0x2)
 *(.trampolines*)
 .trampolines   0x00000ad6        0x0 linker stubs
 *(.jumptables*)
 *(.lowtext*)
 *(.init0)
 .init0         0x00000ad6        0x0 c:/winavr-20100110/bin/../lib/gcc/avr/4.3.3/../../../../avr/lib/avr51/crtm1281.o
                0x00000ad6                __init
 .init0         0x00000ad6       0x30 ./../../../../BitCloud/lib/WdtInitatmega1281_Gcc.o
                0x00000ad6                halWdtInit
 *(.init0)
 *(.init1)
 *(.init1)
 *(.init2)
 .init2         0x00000b06        0xc c:/winavr-20100110/bin/../lib/gcc/avr/4.3.3/../../../../avr/lib/avr51/crtm1281.o
 *(.init2)
 *(.init3)
 *(.init3)
 *(.init4)
 .init4         0x00000b12       0x1a c:/winavr-20100110/bin/../lib/gcc/avr/4.3.3/../../../../avr/lib/avr51/crtm1281.o
                0x00000b12                __do_copy_data
 .init4         0x00000b2c       0x10 c:/winavr-20100110/bin/../lib/gcc/avr/4.3.3/avr51\libgcc.a(_clear_bss.o)
                0x00000b2c                __do_clear_bss
 *(.init4)
 *(.init5)
 *(.init5)
 *(.init6)
 *(.init6)
 *(.init7)
 *(.init7)
 *(.init8)
 *(.init8)
 *(.text.main)
 .text.main     0x00000b3c        0xa All_Sec_ZigBit_Atmega1281_Rf212_8Mhz_Gcc/Obj/app.o
                0x00000b3c                main
 *(.text.main)
 *(.text)
 .text          0x00000b46        0x4 c:/winavr-20100110/bin/../lib/gcc/avr/4.3.3/../../../../avr/lib/avr51/crtm1281.o
                0x00000b46                __vector_22
                0x00000b46                __vector_28
                0x00000b46                __vector_1
                0x00000b46                __vector_32
                0x00000b46                __vector_34
                0x00000b46                __vector_24
                0x00000b46                __vector_12
                0x00000b46                __vector_46
                0x00000b46                __bad_interrupt
                0x00000b46                __vector_31
                0x00000b46                __vector_35
                0x00000b46                __vector_3
                0x00000b46                __vector_23
                0x00000b46                __vector_45
                0x00000b46                __vector_11
                0x00000b46                __vector_17
                0x00000b46                __vector_19
                0x00000b46                __vector_49
                0x00000b46                __vector_41
                0x00000b46                __vector_33
                0x00000b46                __vector_47
                0x00000b46                __vector_4
                0x00000b46                __vector_44
                0x00000b46                __vector_9
                0x00000b46                __vector_2
                0x00000b46                __vector_21
                0x00000b46                __vector_40
                0x00000b46                __vector_48
                0x00000b46                __vector_14
                0x00000b46                __vector_10
                0x00000b46                __vector_50
                0x00000b46                __vector_16
                0x00000b46                __vector_18
                0x00000b46                __vector_20
 .text          0x00000b4a       0xce ./../../../../BitCloud/lib/libHAL_ZigBit_Atmega1281_8Mhz_Gcc.a(halW1.o)
                0x00000c08                __delay_us
                0x00000b4a                halResetW1
                0x00000bf6                halWriteW1
                0x00000b7e                halReadW1Bit
                0x00000bae                halReadW1
                0x00000bca                halWriteW1bit
 .text          0x00000c18       0x3a ./../../../../BitCloud/lib/libHAL_ZigBit_Atmega1281_8Mhz_Gcc.a(halCalibration.o)
                0x00000c18                halMeasurement
 .text          0x00000c52       0xfe c:/winavr-20100110/bin/../lib/gcc/avr/4.3.3/avr51\libgcc.a(_lshrdi3.o)
                0x00000c52                __lshrdi3
 .text          0x00000d50       0xfe c:/winavr-20100110/bin/../lib/gcc/avr/4.3.3/avr51\libgcc.a(_ashldi3.o)
                0x00000d50                __ashldi3
 *(.text.*)
 .text.printMessageFired
                0x00000e4e       0x20 All_Sec_ZigBit_Atmega1281_Rf212_8Mhz_Gcc/Obj/app.o
 .text.ZDO_MgmtNwkUpdateNotf
                0x00000e6e        0x2 All_Sec_ZigBit_Atmega1281_Rf212_8Mhz_Gcc/Obj/app.o
                0x00000e6e                ZDO_MgmtNwkUpdateNotf
 .text.ZDO_WakeUpInd
                0x00000e70        0x2 All_Sec_ZigBit_Atmega1281_Rf212_8Mhz_Gcc/Obj/app.o
                0x00000e70                ZDO_WakeUpInd
 .text.ZDO_BindIndication
                0x00000e72        0x2 All_Sec_ZigBit_Atmega1281_Rf212_8Mhz_Gcc/Obj/app.o
                0x00000e72                ZDO_BindIndication
 .text.ZDO_UnbindIndication
                0x00000e74        0x2 All_Sec_ZigBit_Atmega1281_Rf212_8Mhz_Gcc/Obj/app.o
                0x00000e74                ZDO_UnbindIndication
 .text.APL_TaskHandler
                0x00000e76      0x136 All_Sec_ZigBit_Atmega1281_Rf212_8Mhz_Gcc/Obj/app.o
                0x00000e76                APL_TaskHandler
 .text.pdsDummyCallback
                0x00000fac        0x2 All_Sec_ZigBit_Atmega1281_Rf212_8Mhz_Gcc/Obj/pdsWriteData.o
                0x00000fac                pdsDummyCallback
 .text.pdsWaitMemoryFree
                0x00000fae       0x10 All_Sec_ZigBit_Atmega1281_Rf212_8Mhz_Gcc/Obj/pdsWriteData.o
                0x00000fae                pdsWaitMemoryFree
 .text.pdsRead  0x00000fbe       0x38 All_Sec_ZigBit_Atmega1281_Rf212_8Mhz_Gcc/Obj/pdsWriteData.o
                0x00000fbe                pdsRead
 .text.pdsWrite
                0x00000ff6       0x38 All_Sec_ZigBit_Atmega1281_Rf212_8Mhz_Gcc/Obj/pdsWriteData.o
                0x00000ff6                pdsWrite
 .text.pdsStartCommitment
                0x0000102e      0x1e0 All_Sec_ZigBit_Atmega1281_Rf212_8Mhz_Gcc/Obj/pdsWriteData.o
                0x0000102e                pdsStartCommitment
 .text.pdsAddDataForCommitment
                0x0000120e       0x6e All_Sec_ZigBit_Atmega1281_Rf212_8Mhz_Gcc/Obj/pdsWriteData.o
                0x0000120e                pdsAddDataForCommitment
 .text.pdsInitMemMask
                0x0000127c       0x3a All_Sec_ZigBit_Atmega1281_Rf212_8Mhz_Gcc/Obj/pdsDataServer.o
 .text.pdsGetMemoryAllowed
                0x000012b6       0x36 All_Sec_ZigBit_Atmega1281_Rf212_8Mhz_Gcc/Obj/pdsDataServer.o
 .text.PDS_IsMemoryRestored
                0x000012ec       0x7e All_Sec_ZigBit_Atmega1281_Rf212_8Mhz_Gcc/Obj/pdsDataServer.o
                0x000012ec                PDS_IsMemoryRestored
 .text.PDS_Store
                0x0000136a       0x14 All_Sec_ZigBit_Atmega1281_Rf212_8Mhz_Gcc/Obj/pdsDataServer.o
                0x0000136a                PDS_Store
 .text.PDS_Init
                0x0000137e      0x226 All_Sec_ZigBit_Atmega1281_Rf212_8Mhz_Gcc/Obj/pdsInit.o
                0x0000137e                PDS_Init
 .text.pdsTimerInit
                0x000015a4       0x12 All_Sec_ZigBit_Atmega1281_Rf212_8Mhz_Gcc/Obj/pdsTimer.o
                0x000015a4                pdsTimerInit
 .text.pdsTimerFired
                0x000015b6        0xe All_Sec_ZigBit_Atmega1281_Rf212_8Mhz_Gcc/Obj/pdsTimer.o
 .text.pdsExpandMemoryMask
                0x000015c4      0x15e All_Sec_ZigBit_Atmega1281_Rf212_8Mhz_Gcc/Obj/pdsMemAccess.o
                0x000015c4                pdsExpandMemoryMask
 .text.pdsGetFileDescrRec
                0x00001722       0x66 All_Sec_ZigBit_Atmega1281_Rf212_8Mhz_Gcc/Obj/pdsMemAccess.o
                0x00001722                pdsGetFileDescrRec
 .text.pdsPrepareAccessContext
                0x00001788       0x4a All_Sec_ZigBit_Atmega1281_Rf212_8Mhz_Gcc/Obj/pdsMemAccess.o
                0x00001788                pdsPrepareAccessContext
 .text.pdsGetFileOffset
                0x000017d2      0x118 All_Sec_ZigBit_Atmega1281_Rf212_8Mhz_Gcc/Obj/pdsMemAccess.o
                0x000017d2                pdsGetFileOffset
 .text.pdsPrepareMemoryAccess
                0x000018ea       0xc4 All_Sec_ZigBit_Atmega1281_Rf212_8Mhz_Gcc/Obj/pdsMemAccess.o
                0x000018ea                pdsPrepareMemoryAccess
 .text.pdsCalculateRAMDataCrc
                0x000019ae       0x20 All_Sec_ZigBit_Atmega1281_Rf212_8Mhz_Gcc/Obj/pdsCrcService.o
                0x000019ae                pdsCalculateRAMDataCrc
 .text.pdsCheckFile
                0x000019ce       0xe4 All_Sec_ZigBit_Atmega1281_Rf212_8Mhz_Gcc/Obj/pdsCrcService.o
                0x000019ce                pdsCheckFile
 .text.pdsCheckStorage
                0x00001ab2       0x84 All_Sec_ZigBit_Atmega1281_Rf212_8Mhz_Gcc/Obj/pdsCrcService.o
                0x00001ab2                pdsCheckStorage
 .text.bspButtonsHandler
                0x00001b36      0x10e All_Sec_ZigBit_Atmega1281_Rf212_8Mhz_Gcc/Obj/buttons.o
                0x00001b36                bspButtonsHandler
 .text.lm73I2cPacketReadDone
                0x00001c44       0xae All_Sec_ZigBit_Atmega1281_Rf212_8Mhz_Gcc/Obj/lm73.o
 .text.bspLm73Handler
                0x00001cf2       0x24 All_Sec_ZigBit_Atmega1281_Rf212_8Mhz_Gcc/Obj/lm73.o
                0x00001cf2                bspLm73Handler
 .text.tsl2550I2cPacketReadDoneCh1
                0x00001d16       0x2e All_Sec_ZigBit_Atmega1281_Rf212_8Mhz_Gcc/Obj/tsl2550.o
 .text.bspTsl2550Handler
                0x00001d44      0x13a All_Sec_ZigBit_Atmega1281_Rf212_8Mhz_Gcc/Obj/tsl2550.o
                0x00001d44                bspTsl2550Handler
 .text.tsl2550StartFirstReading
                0x00001e7e       0x6a All_Sec_ZigBit_Atmega1281_Rf212_8Mhz_Gcc/Obj/tsl2550.o
 .text.tsl2550I2cPacketReadDoneCh0
                0x00001ee8       0x66 All_Sec_ZigBit_Atmega1281_Rf212_8Mhz_Gcc/Obj/tsl2550.o
 .text.tsl2550I2cPacketWriteDoneCh0
                0x00001f4e       0x60 All_Sec_ZigBit_Atmega1281_Rf212_8Mhz_Gcc/Obj/tsl2550.o
 .text.tsl2550I2cPacketWriteDoneCh1
                0x00001fae       0x60 All_Sec_ZigBit_Atmega1281_Rf212_8Mhz_Gcc/Obj/tsl2550.o
 .text.bspEmptyBatteryHandler
                0x0000200e       0x10 All_Sec_ZigBit_Atmega1281_Rf212_8Mhz_Gcc/Obj/fakeBSP.o
                0x0000200e                bspEmptyBatteryHandler
 .text.BSP_TaskHandler
                0x0000201e       0x7a All_Sec_ZigBit_Atmega1281_Rf212_8Mhz_Gcc/Obj/bspTaskManager.o
                0x0000201e                BSP_TaskHandler
 .text.csSetToDefault
                0x00002098       0x7e All_Sec_ZigBit_Atmega1281_Rf212_8Mhz_Gcc/Obj/csMem.o
                0x00002098                csSetToDefault
 .text.CS_GetMemory
                0x00002116       0x46 All_Sec_ZigBit_Atmega1281_Rf212_8Mhz_Gcc/Obj/configServer.o
                0x00002116                CS_GetMemory
 .text.CS_WriteParameter
                0x0000215c       0x5c All_Sec_ZigBit_Atmega1281_Rf212_8Mhz_Gcc/Obj/configServer.o
                0x0000215c                CS_WriteParameter
 .text.CS_ReadParameter
                0x000021b8       0x5a All_Sec_ZigBit_Atmega1281_Rf212_8Mhz_Gcc/Obj/configServer.o
                0x000021b8                CS_ReadParameter
 .text.CS_Init  0x00002212        0xa All_Sec_ZigBit_Atmega1281_Rf212_8Mhz_Gcc/Obj/configServer.o
                0x00002212                CS_Init
 .text.halAppTimerHandler
                0x0000221c       0x8a ./../../../../BitCloud/lib/libHAL_ZigBit_Atmega1281_8Mhz_Gcc.a(appTimer.o)
                0x0000221c                halAppTimerHandler
 .text.HAL_StartAppTimer
                0x000022a6       0x58 ./../../../../BitCloud/lib/libHAL_ZigBit_Atmega1281_8Mhz_Gcc.a(appTimer.o)
                0x000022a6                HAL_StartAppTimer
 .text.HAL_StopAppTimer
                0x000022fe       0x4a ./../../../../BitCloud/lib/libHAL_ZigBit_Atmega1281_8Mhz_Gcc.a(appTimer.o)
                0x000022fe                HAL_StopAppTimer
 .text.HAL_GetSystemTime
                0x00002348       0x4e ./../../../../BitCloud/lib/libHAL_ZigBit_Atmega1281_8Mhz_Gcc.a(appTimer.o)
                0x00002348                HAL_GetSystemTime
 .text.halSigUsartReceptionComplete
                0x00002396       0x54 ./../../../../BitCloud/lib/libHAL_ZigBit_Atmega1281_8Mhz_Gcc.a(usart.o)
 .text.halSetUsartClockPinDirection
                0x000023ea       0x36 ./../../../../BitCloud/lib/libHAL_ZigBit_Atmega1281_8Mhz_Gcc.a(usart.o)
 .text.halUsartTaskUsart0Rxc
                0x00002420        0x8 ./../../../../BitCloud/lib/libHAL_ZigBit_Atmega1281_8Mhz_Gcc.a(usart.o)
 .text.halUsartTaskUsart1Rxc
                0x00002428        0x8 ./../../../../BitCloud/lib/libHAL_ZigBit_Atmega1281_8Mhz_Gcc.a(usart.o)
 .text.halUsartHwController
                0x00002430      0x102 ./../../../../BitCloud/lib/libHAL_ZigBit_Atmega1281_8Mhz_Gcc.a(usart.o)
 .text.hwControlPinsPollCallback
                0x00002532        0x8 ./../../../../BitCloud/lib/libHAL_ZigBit_Atmega1281_8Mhz_Gcc.a(usart.o)
                0x00002532                hwControlPinsPollCallback
 .text.halUsartTaskUsart1Dre
                0x0000253a        0x8 ./../../../../BitCloud/lib/libHAL_ZigBit_Atmega1281_8Mhz_Gcc.a(usart.o)
 .text.halUsartTaskUsart0Dre
                0x00002542        0x8 ./../../../../BitCloud/lib/libHAL_ZigBit_Atmega1281_8Mhz_Gcc.a(usart.o)
 .text.halSigUsartHandler
                0x0000254a       0x6e ./../../../../BitCloud/lib/libHAL_ZigBit_Atmega1281_8Mhz_Gcc.a(usart.o)
                0x0000254a                halSigUsartHandler
 .text.halPostUsartTask
                0x000025b8       0x3c ./../../../../BitCloud/lib/libHAL_ZigBit_Atmega1281_8Mhz_Gcc.a(usart.o)
                0x000025b8                halPostUsartTask
 .text.halUsartRxBufferFiller
                0x000025f4       0xe6 ./../../../../BitCloud/lib/libHAL_ZigBit_Atmega1281_8Mhz_Gcc.a(usart.o)
                0x000025f4                halUsartRxBufferFiller
 .text.halSigUsartTransmissionComplete
                0x000026da       0x68 ./../../../../BitCloud/lib/libHAL_ZigBit_Atmega1281_8Mhz_Gcc.a(usart.o)
                0x000026da                halSigUsartTransmissionComplete
 .text.halUsartTaskUsart1Txc
                0x00002742        0x8 ./../../../../BitCloud/lib/libHAL_ZigBit_Atmega1281_8Mhz_Gcc.a(usart.o)
 .text.halUsartTaskUsart0Txc
                0x0000274a        0x8 ./../../../../BitCloud/lib/libHAL_ZigBit_Atmega1281_8Mhz_Gcc.a(usart.o)
 .text.halIsUsartChannelCorrect
                0x00002752       0x16 ./../../../../BitCloud/lib/libHAL_ZigBit_Atmega1281_8Mhz_Gcc.a(usart.o)
                0x00002752                halIsUsartChannelCorrect
 .text.HAL_WriteUsart
                0x00002768       0xfc ./../../../../BitCloud/lib/libHAL_ZigBit_Atmega1281_8Mhz_Gcc.a(usart.o)
                0x00002768                HAL_WriteUsart
 .text.HAL_OpenUsart
                0x00002864       0xca ./../../../../BitCloud/lib/libHAL_ZigBit_Atmega1281_8Mhz_Gcc.a(usart.o)
                0x00002864                HAL_OpenUsart
 .text.HAL_EnableIrq
                0x0000292e       0x3e ./../../../../BitCloud/lib/libHAL_ZigBit_Atmega1281_8Mhz_Gcc.a(irq.o)
                0x0000292e                HAL_EnableIrq
 .text.halI2cBusReset
                0x0000296c       0x36 ./../../../../BitCloud/lib/libHAL_ZigBit_Atmega1281_8Mhz_Gcc.a(i2cPacket.o)
                0x0000296c                halI2cBusReset
 .text.HAL_CloseI2cPacket
                0x000029a2       0x32 ./../../../../BitCloud/lib/libHAL_ZigBit_Atmega1281_8Mhz_Gcc.a(i2cPacket.o)
                0x000029a2                HAL_CloseI2cPacket
 .text.HAL_WriteI2cPacket
                0x000029d4       0x52 ./../../../../BitCloud/lib/libHAL_ZigBit_Atmega1281_8Mhz_Gcc.a(i2cPacket.o)
                0x000029d4                HAL_WriteI2cPacket
 .text.HAL_ReadI2cPacket
                0x00002a26       0x52 ./../../../../BitCloud/lib/libHAL_ZigBit_Atmega1281_8Mhz_Gcc.a(i2cPacket.o)
                0x00002a26                HAL_ReadI2cPacket
 .text.halSendStartDoneI2c
                0x00002a78       0x3e ./../../../../BitCloud/lib/libHAL_ZigBit_Atmega1281_8Mhz_Gcc.a(i2cPacket.o)
                0x00002a78                halSendStartDoneI2c
 .text.halWriteData
                0x00002ab6       0x64 ./../../../../BitCloud/lib/libHAL_ZigBit_Atmega1281_8Mhz_Gcc.a(i2cPacket.o)
                0x00002ab6                halWriteData
 .text.halWriteInternalAddress
                0x00002b1a       0x5c ./../../../../BitCloud/lib/libHAL_ZigBit_Atmega1281_8Mhz_Gcc.a(i2cPacket.o)
                0x00002b1a                halWriteInternalAddress
 .text.halWriteDoneI2c
                0x00002b76       0x3a ./../../../../BitCloud/lib/libHAL_ZigBit_Atmega1281_8Mhz_Gcc.a(i2cPacket.o)
                0x00002b76                halWriteDoneI2c
 .text.halMasterReadWriteAddressAckI2c
                0x00002bb0       0x3c ./../../../../BitCloud/lib/libHAL_ZigBit_Atmega1281_8Mhz_Gcc.a(i2cPacket.o)
                0x00002bb0                halMasterReadWriteAddressAckI2c
 .text.halReadDoneI2c
                0x00002bec       0x58 ./../../../../BitCloud/lib/libHAL_ZigBit_Atmega1281_8Mhz_Gcc.a(i2cPacket.o)
                0x00002bec                halReadDoneI2c
 .text.halReadLastByteDoneI2c
                0x00002c44       0x58 ./../../../../BitCloud/lib/libHAL_ZigBit_Atmega1281_8Mhz_Gcc.a(i2cPacket.o)
                0x00002c44                halReadLastByteDoneI2c
 .text.halSig2WireSerialHandler
                0x00002c9c       0x46 ./../../../../BitCloud/lib/libHAL_ZigBit_Atmega1281_8Mhz_Gcc.a(i2cPacket.o)
                0x00002c9c                halSig2WireSerialHandler
 .text.HAL_ReadEeprom
                0x00002ce2       0xc8 ./../../../../BitCloud/lib/libHAL_ZigBit_Atmega1281_8Mhz_Gcc.a(eeprom.o)
                0x00002ce2                HAL_ReadEeprom
 .text.HAL_WriteEeprom
                0x00002daa       0xea ./../../../../BitCloud/lib/libHAL_ZigBit_Atmega1281_8Mhz_Gcc.a(eeprom.o)
                0x00002daa                HAL_WriteEeprom
 .text.HAL_IsEepromBusy
                0x00002e94        0xe ./../../../../BitCloud/lib/libHAL_ZigBit_Atmega1281_8Mhz_Gcc.a(eeprom.o)
                0x00002e94                HAL_IsEepromBusy
 .text.halSigEepromReadyHandler
                0x00002ea2       0x60 ./../../../../BitCloud/lib/libHAL_ZigBit_Atmega1281_8Mhz_Gcc.a(eeprom.o)
                0x00002ea2                halSigEepromReadyHandler
 .text.halAddTimer
                0x00002f02      0x370 ./../../../../BitCloud/lib/libHAL_ZigBit_Atmega1281_8Mhz_Gcc.a(timer.o)
                0x00002f02                halAddTimer
 .text.halRemoveTimer
                0x00003272       0x3e ./../../../../BitCloud/lib/libHAL_ZigBit_Atmega1281_8Mhz_Gcc.a(timer.o)
                0x00003272                halRemoveTimer
 .text.halFindPrevTimer
                0x000032b0       0x1e ./../../../../BitCloud/lib/libHAL_ZigBit_Atmega1281_8Mhz_Gcc.a(timer.o)
                0x000032b0                halFindPrevTimer
 .text.halClearTimeControl
                0x000032ce       0x14 ./../../../../BitCloud/lib/libHAL_ZigBit_Atmega1281_8Mhz_Gcc.a(halSleepTimerClock.o)
                0x000032ce                halClearTimeControl
 .text.halWakeupFromIrq
                0x000032e2       0x28 ./../../../../BitCloud/lib/libHAL_ZigBit_Atmega1281_8Mhz_Gcc.a(halSleepTimerClock.o)
                0x000032e2                halWakeupFromIrq
 .text.halStartSleepTimerClock
                0x0000330a       0x48 ./../../../../BitCloud/lib/libHAL_ZigBit_Atmega1281_8Mhz_Gcc.a(halSleepTimerClock.o)
                0x0000330a                halStartSleepTimerClock
 .text.halStopSleepTimerClock
                0x00003352       0x42 ./../../../../BitCloud/lib/libHAL_ZigBit_Atmega1281_8Mhz_Gcc.a(halSleepTimerClock.o)
                0x00003352                halStopSleepTimerClock
 .text.halSetSleepTimerInterval
                0x00003394       0x6a ./../../../../BitCloud/lib/libHAL_ZigBit_Atmega1281_8Mhz_Gcc.a(halSleepTimerClock.o)
                0x00003394                halSetSleepTimerInterval
 .text.halGetTimeOfSleepTimer
                0x000033fe       0xbc ./../../../../BitCloud/lib/libHAL_ZigBit_Atmega1281_8Mhz_Gcc.a(halSleepTimerClock.o)
                0x000033fe                halGetTimeOfSleepTimer
 .text.halSleepTimerFrequency
                0x000034ba        0xa ./../../../../BitCloud/lib/libHAL_ZigBit_Atmega1281_8Mhz_Gcc.a(halSleepTimerClock.o)
                0x000034ba                halSleepTimerFrequency
 .text.halSleepSystemTimeSynchronize
                0x000034c4       0x62 ./../../../../BitCloud/lib/libHAL_ZigBit_Atmega1281_8Mhz_Gcc.a(halSleepTimerClock.o)
                0x000034c4                halSleepSystemTimeSynchronize
 .text.__vector_13
                0x00003526       0x92 ./../../../../BitCloud/lib/libHAL_ZigBit_Atmega1281_8Mhz_Gcc.a(halSleepTimerClock.o)
                0x00003526                __vector_13
 .text.__vector_15
                0x000035b8      0x10a ./../../../../BitCloud/lib/libHAL_ZigBit_Atmega1281_8Mhz_Gcc.a(halSleepTimerClock.o)
                0x000035b8                __vector_15
 .text.halInitAppClock
                0x000036c2       0x26 ./../../../../BitCloud/lib/libHAL_ZigBit_Atmega1281_8Mhz_Gcc.a(halAppClock.o)
                0x000036c2                halInitAppClock
 .text.halAdjustSleepInterval
                0x000036e8       0x50 ./../../../../BitCloud/lib/libHAL_ZigBit_Atmega1281_8Mhz_Gcc.a(halAppClock.o)
                0x000036e8                halAdjustSleepInterval
 .text.halAppSystemTimeSynchronize
                0x00003738       0x62 ./../../../../BitCloud/lib/libHAL_ZigBit_Atmega1281_8Mhz_Gcc.a(halAppClock.o)
                0x00003738                halAppSystemTimeSynchronize
 .text.halGetTimeOfAppTimer
                0x0000379a       0x16 ./../../../../BitCloud/lib/libHAL_ZigBit_Atmega1281_8Mhz_Gcc.a(halAppClock.o)
                0x0000379a                halGetTimeOfAppTimer
 .text.__vector_42
                0x000037b0       0x4c ./../../../../BitCloud/lib/libHAL_ZigBit_Atmega1281_8Mhz_Gcc.a(halAppClock.o)
                0x000037b0                __vector_42
 .text.halSetUsartConfig
                0x000037fc       0xb2 ./../../../../BitCloud/lib/libHAL_ZigBit_Atmega1281_8Mhz_Gcc.a(halUsart.o)
                0x000037fc                halSetUsartConfig
 .text.__vector_26
                0x000038ae       0x5c ./../../../../BitCloud/lib/libHAL_ZigBit_Atmega1281_8Mhz_Gcc.a(halUsart.o)
                0x000038ae                __vector_26
 .text.__vector_27
                0x0000390a       0x5c ./../../../../BitCloud/lib/libHAL_ZigBit_Atmega1281_8Mhz_Gcc.a(halUsart.o)
                0x0000390a                __vector_27
 .text.__vector_25
                0x00003966       0x64 ./../../../../BitCloud/lib/libHAL_ZigBit_Atmega1281_8Mhz_Gcc.a(halUsart.o)
                0x00003966                __vector_25
 .text.__vector_37
                0x000039ca       0x5c ./../../../../BitCloud/lib/libHAL_ZigBit_Atmega1281_8Mhz_Gcc.a(halUsart.o)
                0x000039ca                __vector_37
 .text.__vector_38
                0x00003a26       0x5c ./../../../../BitCloud/lib/libHAL_ZigBit_Atmega1281_8Mhz_Gcc.a(halUsart.o)
                0x00003a26                __vector_38
 .text.__vector_36
                0x00003a82       0x64 ./../../../../BitCloud/lib/libHAL_ZigBit_Atmega1281_8Mhz_Gcc.a(halUsart.o)
                0x00003a82                __vector_36
 .text.__vector_5
                0x00003ae6       0x66 ./../../../../BitCloud/lib/libHAL_ZigBit_Atmega1281_8Mhz_Gcc.a(halUsart.o)
                0x00003ae6                __vector_5
 .text.halSetIrqConfig
                0x00003b4c       0x5e ./../../../../BitCloud/lib/libHAL_ZigBit_Atmega1281_8Mhz_Gcc.a(halIrq.o)
                0x00003b4c                halSetIrqConfig
 .text.__vector_7
                0x00003baa       0x5e ./../../../../BitCloud/lib/libHAL_ZigBit_Atmega1281_8Mhz_Gcc.a(halIrq.o)
                0x00003baa                __vector_7
 .text.__vector_8
                0x00003c08       0x5e ./../../../../BitCloud/lib/libHAL_ZigBit_Atmega1281_8Mhz_Gcc.a(halIrq.o)
                0x00003c08                __vector_8
 .text.__vector_39
                0x00003c66       0xda ./../../../../BitCloud/lib/libHAL_ZigBit_Atmega1281_8Mhz_Gcc.a(halTwi.o)
                0x00003c66                __vector_39
 .text.halEepromWrite
                0x00003d40       0x1c ./../../../../BitCloud/lib/libHAL_ZigBit_Atmega1281_8Mhz_Gcc.a(halEeprom.o)
                0x00003d40                halEepromWrite
 .text.__vector_30
                0x00003d5c       0x44 ./../../../../BitCloud/lib/libHAL_ZigBit_Atmega1281_8Mhz_Gcc.a(halEeprom.o)
                0x00003d5c                __vector_30
 .text.halPowerOn
                0x00003da0       0x5e ./../../../../BitCloud/lib/libHAL_ZigBit_Atmega1281_8Mhz_Gcc.a(halSleep.o)
                0x00003da0                halPowerOn
 .text.halPowerOff
                0x00003dfe       0xcc ./../../../../BitCloud/lib/libHAL_ZigBit_Atmega1281_8Mhz_Gcc.a(halSleep.o)
                0x00003dfe                halPowerOff
 .text.HAL_Sleep
                0x00003eca       0xe8 ./../../../../BitCloud/lib/libHAL_ZigBit_Atmega1281_8Mhz_Gcc.a(halSleep.o)
                0x00003eca                HAL_Sleep
 .text.halWakeupHandler
                0x00003fb2       0x5e ./../../../../BitCloud/lib/libHAL_ZigBit_Atmega1281_8Mhz_Gcc.a(halSleep.o)
                0x00003fb2                halWakeupHandler
 .text.halCalibrateInternalRc
                0x00004010       0xda ./../../../../BitCloud/lib/libHAL_ZigBit_Atmega1281_8Mhz_Gcc.a(calibration.o)
                0x00004010                halCalibrateInternalRc
 .text.HAL_CalibrateMainClock
                0x000040ea        0xe ./../../../../BitCloud/lib/libHAL_ZigBit_Atmega1281_8Mhz_Gcc.a(calibration.o)
                0x000040ea                HAL_CalibrateMainClock
 .text.halStartingCalibrate
                0x000040f8       0x1c ./../../../../BitCloud/lib/libHAL_ZigBit_Atmega1281_8Mhz_Gcc.a(calibration.o)
                0x000040f8                halStartingCalibrate
 .text.HAL_Delay
                0x00004114        0x6 ./../../../../BitCloud/lib/libHAL_ZigBit_Atmega1281_8Mhz_Gcc.a(halRfCtrl.o)
                0x00004114                HAL_Delay
 .text.HAL_ClearRfIrqFlag
                0x0000411a        0x6 ./../../../../BitCloud/lib/libHAL_ZigBit_Atmega1281_8Mhz_Gcc.a(halRfCtrl.o)
                0x0000411a                HAL_ClearRfIrqFlag
 .text.HAL_EnableRfIrq
                0x00004120        0x4 ./../../../../BitCloud/lib/libHAL_ZigBit_Atmega1281_8Mhz_Gcc.a(halRfCtrl.o)
                0x00004120                HAL_EnableRfIrq
 .text.HAL_DisableRfIrq
                0x00004124        0x8 ./../../../../BitCloud/lib/libHAL_ZigBit_Atmega1281_8Mhz_Gcc.a(halRfCtrl.o)
                0x00004124                HAL_DisableRfIrq
 .text.HAL_SetRfSlpTr
                0x0000412c        0x4 ./../../../../BitCloud/lib/libHAL_ZigBit_Atmega1281_8Mhz_Gcc.a(halRfCtrl.o)
                0x0000412c                HAL_SetRfSlpTr
 .text.HAL_ClearRfSlpTr
                0x00004130        0x4 ./../../../../BitCloud/lib/libHAL_ZigBit_Atmega1281_8Mhz_Gcc.a(halRfCtrl.o)
                0x00004130                HAL_ClearRfSlpTr
 .text.HAL_SetRfRst
                0x00004134        0x4 ./../../../../BitCloud/lib/libHAL_ZigBit_Atmega1281_8Mhz_Gcc.a(halRfCtrl.o)
                0x00004134                HAL_SetRfRst
 .text.HAL_ClearRfRst
                0x00004138        0x4 ./../../../../BitCloud/lib/libHAL_ZigBit_Atmega1281_8Mhz_Gcc.a(halRfCtrl.o)
                0x00004138                HAL_ClearRfRst
 .text.HAL_InitRfPins
                0x0000413c        0xe ./../../../../BitCloud/lib/libHAL_ZigBit_Atmega1281_8Mhz_Gcc.a(halRfCtrl.o)
                0x0000413c                HAL_InitRfPins
 .text.HAL_InitRfIrq
                0x0000414a        0xc ./../../../../BitCloud/lib/libHAL_ZigBit_Atmega1281_8Mhz_Gcc.a(halRfCtrl.o)
                0x0000414a                HAL_InitRfIrq
 .text.HAL_GetRfFreq
                0x00004156        0x4 ./../../../../BitCloud/lib/libHAL_ZigBit_Atmega1281_8Mhz_Gcc.a(halRfCtrl.o)
                0x00004156                HAL_GetRfFreq
 .text.halWaitRadio
                0x0000415a       0x22 ./../../../../BitCloud/lib/libHAL_ZigBit_Atmega1281_8Mhz_Gcc.a(halRfCtrl.o)
                0x0000415a                halWaitRadio
 .text.HAL_EnableRxTxSwitcher
                0x0000417c        0x2 ./../../../../BitCloud/lib/libHAL_ZigBit_Atmega1281_8Mhz_Gcc.a(halRfCtrl.o)
                0x0000417c                HAL_EnableRxTxSwitcher
 .text.HAL_InitAntennaDiversity
                0x0000417e        0x2 ./../../../../BitCloud/lib/libHAL_ZigBit_Atmega1281_8Mhz_Gcc.a(halRfCtrl.o)
                0x0000417e                HAL_InitAntennaDiversity
 .text.HAL_EnableRxAntennaDiversity
                0x00004180        0x2 ./../../../../BitCloud/lib/libHAL_ZigBit_Atmega1281_8Mhz_Gcc.a(halRfCtrl.o)
                0x00004180                HAL_EnableRxAntennaDiversity
 .text.HAL_EnableTxAntennaDiversity
                0x00004182        0x2 ./../../../../BitCloud/lib/libHAL_ZigBit_Atmega1281_8Mhz_Gcc.a(halRfCtrl.o)
                0x00004182                HAL_EnableTxAntennaDiversity
 .text.HAL_TaskHandler
                0x00004184      0x176 ./../../../../BitCloud/lib/libHAL_ZigBit_Atmega1281_8Mhz_Gcc.a(halTaskManager.o)
                0x00004184                HAL_TaskHandler
 .text.halSigAdcHandler
                0x000042fa       0x16 ./../../../../BitCloud/lib/libHAL_ZigBit_Atmega1281_8Mhz_Gcc.a(adc.o)
                0x000042fa                halSigAdcHandler
 .text.HAL_StartSystemSleep
                0x00004310       0x7a ./../../../../BitCloud/lib/libHAL_ZigBit_Atmega1281_8Mhz_Gcc.a(sleep.o)
                0x00004310                HAL_StartSystemSleep
 .text.halInitFreq
                0x0000438a       0x52 ./../../../../BitCloud/lib/libHAL_ZigBit_Atmega1281_8Mhz_Gcc.a(halClkCtrl.o)
                0x0000438a                halInitFreq
 .text.halGetClockSource
                0x000043dc        0x6 ./../../../../BitCloud/lib/libHAL_ZigBit_Atmega1281_8Mhz_Gcc.a(halClkCtrl.o)
                0x000043dc                halGetClockSource
 .text.__vector_29
                0x000043e2       0xcc ./../../../../BitCloud/lib/libHAL_ZigBit_Atmega1281_8Mhz_Gcc.a(halAdc.o)
                0x000043e2                __vector_29
 .text.HAL_InitRfSpi
                0x000044ae       0x16 ./../../../../BitCloud/lib/libHAL_ZigBit_Atmega1281_8Mhz_Gcc.a(halRfSpi.o)
                0x000044ae                HAL_InitRfSpi
 .text.HAL_WriteByteRfSpi
                0x000044c4       0x2a ./../../../../BitCloud/lib/libHAL_ZigBit_Atmega1281_8Mhz_Gcc.a(halRfSpi.o)
                0x000044c4                HAL_WriteByteRfSpi
 .text.HAL_DeselectRfSpi
                0x000044ee        0x4 ./../../../../BitCloud/lib/libHAL_ZigBit_Atmega1281_8Mhz_Gcc.a(halRfSpi.o)
                0x000044ee                HAL_DeselectRfSpi
 .text.HAL_SelectRfSpi
                0x000044f2        0x4 ./../../../../BitCloud/lib/libHAL_ZigBit_Atmega1281_8Mhz_Gcc.a(halRfSpi.o)
                0x000044f2                HAL_SelectRfSpi
 .text.HAL_StartSleepTimer
                0x000044f6       0x72 ./../../../../BitCloud/lib/libHAL_ZigBit_Atmega1281_8Mhz_Gcc.a(sleepTimer.o)
                0x000044f6                HAL_StartSleepTimer
 .text.halAsyncTimerHandler
                0x00004568       0x52 ./../../../../BitCloud/lib/libHAL_ZigBit_Atmega1281_8Mhz_Gcc.a(sleepTimer.o)
                0x00004568                halAsyncTimerHandler
 .text.nwkBroadcastForMe
                0x000045ba       0x60 ./../../../../BitCloud/lib/libBc_All_Sec_Atmega1281_Rf212_Gcc.a(nwk.o)
 .text.nwkAddressConflictIsIdle
                0x0000461a        0xe ./../../../../BitCloud/lib/libBc_All_Sec_Atmega1281_Rf212_Gcc.a(nwk.o)
 .text.nwkFindAddressMapEntryByShortAddr
                0x00004628       0x30 ./../../../../BitCloud/lib/libBc_All_Sec_Atmega1281_Rf212_Gcc.a(nwk.o)
 .text.nwkDataReqIsIdle
                0x00004658        0xe ./../../../../BitCloud/lib/libBc_All_Sec_Atmega1281_Rf212_Gcc.a(nwk.o)
 .text.nwkDiscoveryIsIdle
                0x00004666        0xe ./../../../../BitCloud/lib/libBc_All_Sec_Atmega1281_Rf212_Gcc.a(nwk.o)
 .text.nwkEDScanIsIdle
                0x00004674        0xe ./../../../../BitCloud/lib/libBc_All_Sec_Atmega1281_Rf212_Gcc.a(nwk.o)
 .text.nwkFormationIsIdle
                0x00004682        0xe ./../../../../BitCloud/lib/libBc_All_Sec_Atmega1281_Rf212_Gcc.a(nwk.o)
 .text.nwkParseHeader
                0x00004690       0xce ./../../../../BitCloud/lib/libBc_All_Sec_Atmega1281_Rf212_Gcc.a(nwk.o)
 .text.nwkSetDepth
                0x0000475e        0xc ./../../../../BitCloud/lib/libBc_All_Sec_Atmega1281_Rf212_Gcc.a(nwk.o)
 .text.nwkJoinIndIsIdle
                0x0000476a       0x30 ./../../../../BitCloud/lib/libBc_All_Sec_Atmega1281_Rf212_Gcc.a(nwk.o)
 .text.nwkJoinReqIsIdle
                0x0000479a        0xe ./../../../../BitCloud/lib/libBc_All_Sec_Atmega1281_Rf212_Gcc.a(nwk.o)
 .text.nwkLeaveReqIsIdle
                0x000047a8        0xe ./../../../../BitCloud/lib/libBc_All_Sec_Atmega1281_Rf212_Gcc.a(nwk.o)
 .text.nwkLinkStatusIsIdle
                0x000047b6        0xe ./../../../../BitCloud/lib/libBc_All_Sec_Atmega1281_Rf212_Gcc.a(nwk.o)
 .text.nwkLoopbackIsIdle
                0x000047c4        0xe ./../../../../BitCloud/lib/libBc_All_Sec_Atmega1281_Rf212_Gcc.a(nwk.o)
 .text.nwkGetOutgoingCost
                0x000047d2       0x44 ./../../../../BitCloud/lib/libBc_All_Sec_Atmega1281_Rf212_Gcc.a(nwk.o)
 .text.nwkClearNeighborTable
                0x00004816       0x72 ./../../../../BitCloud/lib/libBc_All_Sec_Atmega1281_Rf212_Gcc.a(nwk.o)
 .text.nwkGetEdCapacity
                0x00004888       0x1c ./../../../../BitCloud/lib/libBc_All_Sec_Atmega1281_Rf212_Gcc.a(nwk.o)
 .text.nwkGetRouterCapacity
                0x000048a4       0x1c ./../../../../BitCloud/lib/libBc_All_Sec_Atmega1281_Rf212_Gcc.a(nwk.o)
 .text.nwkIsJoiningForbidden
                0x000048c0       0x3e ./../../../../BitCloud/lib/libBc_All_Sec_Atmega1281_Rf212_Gcc.a(nwk.o)
 .text.nwkUpdateCapacityBits
                0x000048fe       0x56 ./../../../../BitCloud/lib/libBc_All_Sec_Atmega1281_Rf212_Gcc.a(nwk.o)
 .text.nwkUpdateCapacityBitsInBeacon
                0x00004954       0x3c ./../../../../BitCloud/lib/libBc_All_Sec_Atmega1281_Rf212_Gcc.a(nwk.o)
 .text.nwkUpdateBeaconPayload
                0x00004990       0x94 ./../../../../BitCloud/lib/libBc_All_Sec_Atmega1281_Rf212_Gcc.a(nwk.o)
 .text.nwkFreeNeighbor
                0x00004a24       0x26 ./../../../../BitCloud/lib/libBc_All_Sec_Atmega1281_Rf212_Gcc.a(nwk.o)
 .text.nwkCostFromLqi
                0x00004a4a       0x3a ./../../../../BitCloud/lib/libBc_All_Sec_Atmega1281_Rf212_Gcc.a(nwk.o)
 .text.nwkInitLqiAndCostOfNeighbor
                0x00004a84       0x70 ./../../../../BitCloud/lib/libBc_All_Sec_Atmega1281_Rf212_Gcc.a(nwk.o)
 .text.nwkUpdateLqiAndCostOfNeighbor
                0x00004af4       0x88 ./../../../../BitCloud/lib/libBc_All_Sec_Atmega1281_Rf212_Gcc.a(nwk.o)
 .text.nwkFindPassiveAck
                0x00004b7c       0x2a ./../../../../BitCloud/lib/libBc_All_Sec_Atmega1281_Rf212_Gcc.a(nwk.o)
 .text.nwkNewPassiveAck
                0x00004ba6       0xfa ./../../../../BitCloud/lib/libBc_All_Sec_Atmega1281_Rf212_Gcc.a(nwk.o)
 .text.nwkFreePassiveAck
                0x00004ca0       0x2e ./../../../../BitCloud/lib/libBc_All_Sec_Atmega1281_Rf212_Gcc.a(nwk.o)
 .text.nwkPermitJoiningIsIdle
                0x00004cce       0x1c ./../../../../BitCloud/lib/libBc_All_Sec_Atmega1281_Rf212_Gcc.a(nwk.o)
 .text.nwkResetIsIdle
                0x00004cea        0xe ./../../../../BitCloud/lib/libBc_All_Sec_Atmega1281_Rf212_Gcc.a(nwk.o)
 .text.nwkRouteDiscoveryIsIdle
                0x00004cf8       0x14 ./../../../../BitCloud/lib/libBc_All_Sec_Atmega1281_Rf212_Gcc.a(nwk.o)
 .text.nwkFindRouteDiscoveryEntry
                0x00004d0c       0x36 ./../../../../BitCloud/lib/libBc_All_Sec_Atmega1281_Rf212_Gcc.a(nwk.o)
 .text.nwkFreeRouteDiscoveryEntry
                0x00004d42       0x3a ./../../../../BitCloud/lib/libBc_All_Sec_Atmega1281_Rf212_Gcc.a(nwk.o)
 .text.nwkConfirmRouteRequestTx
                0x00004d7c       0x60 ./../../../../BitCloud/lib/libBc_All_Sec_Atmega1281_Rf212_Gcc.a(nwk.o)
 .text.nwkRouteDiscoveryTableIsIdle
                0x00004ddc        0xc ./../../../../BitCloud/lib/libBc_All_Sec_Atmega1281_Rf212_Gcc.a(nwk.o)
 .text.nwkFindRoutingEntry
                0x00004de8       0x40 ./../../../../BitCloud/lib/libBc_All_Sec_Atmega1281_Rf212_Gcc.a(nwk.o)
 .text.nwkFreeRoutingEntry
                0x00004e28       0x12 ./../../../../BitCloud/lib/libBc_All_Sec_Atmega1281_Rf212_Gcc.a(nwk.o)
 .text.nwkDeleteRoute
                0x00004e3a       0x48 ./../../../../BitCloud/lib/libBc_All_Sec_Atmega1281_Rf212_Gcc.a(nwk.o)
 .text.nwkUpdateNextHop
                0x00004e82       0xc8 ./../../../../BitCloud/lib/libBc_All_Sec_Atmega1281_Rf212_Gcc.a(nwk.o)
 .text.nwkExtractSecOutCounter
                0x00004f4a       0x3e ./../../../../BitCloud/lib/libBc_All_Sec_Atmega1281_Rf212_Gcc.a(nwk.o)
 .text.nwkResetOutFrameCounter
                0x00004f88       0x3c ./../../../../BitCloud/lib/libBc_All_Sec_Atmega1281_Rf212_Gcc.a(nwk.o)
 .text.nwkFindKey
                0x00004fc4       0x2a ./../../../../BitCloud/lib/libBc_All_Sec_Atmega1281_Rf212_Gcc.a(nwk.o)
 .text.nwkStartRouterIsIdle
                0x00004fee        0xe ./../../../../BitCloud/lib/libBc_All_Sec_Atmega1281_Rf212_Gcc.a(nwk.o)
 .text.nwkSendRouteErrorConf
                0x00004ffc        0x6 ./../../../../BitCloud/lib/libBc_All_Sec_Atmega1281_Rf212_Gcc.a(nwk.o)
 .text.nwkSyncIsIdle
                0x00005002        0xe ./../../../../BitCloud/lib/libBc_All_Sec_Atmega1281_Rf212_Gcc.a(nwk.o)
 .text.nwkPostTask
                0x00005010       0x58 ./../../../../BitCloud/lib/libBc_All_Sec_Atmega1281_Rf212_Gcc.a(nwk.o)
 .text.nwkEDScanMacEDScanConf
                0x00005068       0x3e ./../../../../BitCloud/lib/libBc_All_Sec_Atmega1281_Rf212_Gcc.a(nwk.o)
 .text.nwkFormationMacRxEnableConf
                0x000050a6       0x1c ./../../../../BitCloud/lib/libBc_All_Sec_Atmega1281_Rf212_Gcc.a(nwk.o)
 .text.nwkDiscoveryMacActiveScanConf
                0x000050c2       0x28 ./../../../../BitCloud/lib/libBc_All_Sec_Atmega1281_Rf212_Gcc.a(nwk.o)
 .text.nwkPermitJoiningMacSetConf
                0x000050ea       0x34 ./../../../../BitCloud/lib/libBc_All_Sec_Atmega1281_Rf212_Gcc.a(nwk.o)
 .text.nwkStartRouterMacStartConf
                0x0000511e       0x1c ./../../../../BitCloud/lib/libBc_All_Sec_Atmega1281_Rf212_Gcc.a(nwk.o)
 .text.nwkStatusConf
                0x0000513a        0xe ./../../../../BitCloud/lib/libBc_All_Sec_Atmega1281_Rf212_Gcc.a(nwk.o)
 .text.nwkResetMacRxEnableConf
                0x00005148       0x1c ./../../../../BitCloud/lib/libBc_All_Sec_Atmega1281_Rf212_Gcc.a(nwk.o)
 .text.nwkSendRouteDiscoveryReply
                0x00005164       0x1e ./../../../../BitCloud/lib/libBc_All_Sec_Atmega1281_Rf212_Gcc.a(nwk.o)
 .text.nwkTxDelayIsIdle
                0x00005182       0x14 ./../../../../BitCloud/lib/libBc_All_Sec_Atmega1281_Rf212_Gcc.a(nwk.o)
 .text.nwkReloadNibFromConfigServer
                0x00005196       0x6c ./../../../../BitCloud/lib/libBc_All_Sec_Atmega1281_Rf212_Gcc.a(nwk.o)
 .text.nwkSetLifeTimeOfNeighbor
                0x00005202      0x112 ./../../../../BitCloud/lib/libBc_All_Sec_Atmega1281_Rf212_Gcc.a(nwk.o)
 .text.nwkUpdateOutgoingCostAndLifeTime
                0x00005314       0x4a ./../../../../BitCloud/lib/libBc_All_Sec_Atmega1281_Rf212_Gcc.a(nwk.o)
 .text.nwkAllocPacket
                0x0000535e       0xd2 ./../../../../BitCloud/lib/libBc_All_Sec_Atmega1281_Rf212_Gcc.a(nwk.o)
 .text.nwkAllocInputPacket
                0x00005430       0x2c ./../../../../BitCloud/lib/libBc_All_Sec_Atmega1281_Rf212_Gcc.a(nwk.o)
 .text.nwkAllocDataReqTaskHandler
                0x0000545c       0x5e ./../../../../BitCloud/lib/libBc_All_Sec_Atmega1281_Rf212_Gcc.a(nwk.o)
 .text.nwkLoopbackTaskHandler
                0x000054ba      0x11e ./../../../../BitCloud/lib/libBc_All_Sec_Atmega1281_Rf212_Gcc.a(nwk.o)
 .text.nwkEDScanTaskHandler
                0x000055d8       0xac ./../../../../BitCloud/lib/libBc_All_Sec_Atmega1281_Rf212_Gcc.a(nwk.o)
 .text.nwkDiscoveryTaskHandler
                0x00005684       0xba ./../../../../BitCloud/lib/libBc_All_Sec_Atmega1281_Rf212_Gcc.a(nwk.o)
 .text.nwkTxReq
                0x0000573e       0x12 ./../../../../BitCloud/lib/libBc_All_Sec_Atmega1281_Rf212_Gcc.a(nwk.o)
 .text.nwkDataConf
                0x00005750       0x4c ./../../../../BitCloud/lib/libBc_All_Sec_Atmega1281_Rf212_Gcc.a(nwk.o)
 .text.nwkConfirmDataTx
                0x0000579c       0x3a ./../../../../BitCloud/lib/libBc_All_Sec_Atmega1281_Rf212_Gcc.a(nwk.o)
 .text.findFreeJoinIndObjFor
                0x000057d6       0xd6 ./../../../../BitCloud/lib/libBc_All_Sec_Atmega1281_Rf212_Gcc.a(nwk.o)
 .text.nwkFindAddressMapEntryByExtAddr
                0x000058ac       0x52 ./../../../../BitCloud/lib/libBc_All_Sec_Atmega1281_Rf212_Gcc.a(nwk.o)
 .text.nwkAddToAddressMap
                0x000058fe       0xc2 ./../../../../BitCloud/lib/libBc_All_Sec_Atmega1281_Rf212_Gcc.a(nwk.o)
 .text.nwkStopLinkStatusTimer
                0x000059c0        0xe ./../../../../BitCloud/lib/libBc_All_Sec_Atmega1281_Rf212_Gcc.a(nwk.o)
 .text.nwkRouteDiscoveryTableTimerFired
                0x000059ce       0x56 ./../../../../BitCloud/lib/libBc_All_Sec_Atmega1281_Rf212_Gcc.a(nwk.o)
 .text.nwkStopAgeTimerOfNeighborTable
                0x00005a24        0xa ./../../../../BitCloud/lib/libBc_All_Sec_Atmega1281_Rf212_Gcc.a(nwk.o)
 .text.SYS_GetRandomNumber
                0x00005a2e       0x2a ./../../../../BitCloud/lib/libBc_All_Sec_Atmega1281_Rf212_Gcc.a(nwk.o)
 .text.nwkFindDeviceToJoin
                0x00005a58      0x1cc ./../../../../BitCloud/lib/libBc_All_Sec_Atmega1281_Rf212_Gcc.a(nwk.o)
 .text.nwkStartLinkStatusTimer
                0x00005c24       0x10 ./../../../../BitCloud/lib/libBc_All_Sec_Atmega1281_Rf212_Gcc.a(nwk.o)
 .text.nwkConfirmLinkStatusTx
                0x00005c34       0x1e ./../../../../BitCloud/lib/libBc_All_Sec_Atmega1281_Rf212_Gcc.a(nwk.o)
 .text.nwkStartAgeTimerOfNeighborTable
                0x00005c52       0x32 ./../../../../BitCloud/lib/libBc_All_Sec_Atmega1281_Rf212_Gcc.a(nwk.o)
 .text.freeJoinIndObj
                0x00005c84        0xe ./../../../../BitCloud/lib/libBc_All_Sec_Atmega1281_Rf212_Gcc.a(nwk.o)
 .text.nwkJoinIndTaskHandler
                0x00005c92      0x108 ./../../../../BitCloud/lib/libBc_All_Sec_Atmega1281_Rf212_Gcc.a(nwk.o)
 .text.nwkPrepareCommonFrame
                0x00005d9a       0x50 ./../../../../BitCloud/lib/libBc_All_Sec_Atmega1281_Rf212_Gcc.a(nwk.o)
 .text.nwkAllocRouteDiscoveryEntry
                0x00005dea       0xac ./../../../../BitCloud/lib/libBc_All_Sec_Atmega1281_Rf212_Gcc.a(nwk.o)
 .text.nwkRouteDiscoveryTaskHandler
                0x00005e96       0xd4 ./../../../../BitCloud/lib/libBc_All_Sec_Atmega1281_Rf212_Gcc.a(nwk.o)
 .text.nwkResetTaskManager
                0x00005f6a       0x10 ./../../../../BitCloud/lib/libBc_All_Sec_Atmega1281_Rf212_Gcc.a(nwk.o)
 .text.nwkLinkStatusInd
                0x00005f7a      0x23a ./../../../../BitCloud/lib/libBc_All_Sec_Atmega1281_Rf212_Gcc.a(nwk.o)
 .text.nwkPrepareLeaveChildTx
                0x000061b4       0xb2 ./../../../../BitCloud/lib/libBc_All_Sec_Atmega1281_Rf212_Gcc.a(nwk.o)
 .text.nwkPrepareLeaveItselfTx
                0x00006266       0x90 ./../../../../BitCloud/lib/libBc_All_Sec_Atmega1281_Rf212_Gcc.a(nwk.o)
 .text.nwkPrepareJoinRespTx
                0x000062f6       0xf0 ./../../../../BitCloud/lib/libBc_All_Sec_Atmega1281_Rf212_Gcc.a(nwk.o)
 .text.nwkPrepareJoinReqTx
                0x000063e6       0x94 ./../../../../BitCloud/lib/libBc_All_Sec_Atmega1281_Rf212_Gcc.a(nwk.o)
 .text.nwkPrepareLinkStatusTx
                0x0000647a      0x1e2 ./../../../../BitCloud/lib/libBc_All_Sec_Atmega1281_Rf212_Gcc.a(nwk.o)
 .text.nwkFormationMacActiveScanConf
                0x0000665c      0x25a ./../../../../BitCloud/lib/libBc_All_Sec_Atmega1281_Rf212_Gcc.a(nwk.o)
 .text.nwkPermitJoiningTaskHandler
                0x000068b6       0xe4 ./../../../../BitCloud/lib/libBc_All_Sec_Atmega1281_Rf212_Gcc.a(nwk.o)
 .text.nwkPermitJoinTimerFired
                0x0000699a       0x26 ./../../../../BitCloud/lib/libBc_All_Sec_Atmega1281_Rf212_Gcc.a(nwk.o)
 .text.nwkGetSuitableParent
                0x000069c0       0x80 ./../../../../BitCloud/lib/libBc_All_Sec_Atmega1281_Rf212_Gcc.a(nwk.o)
 .text.nwkConfirmJoinReqTx
                0x00006a40       0x62 ./../../../../BitCloud/lib/libBc_All_Sec_Atmega1281_Rf212_Gcc.a(nwk.o)
 .text.macLatencyFired
                0x00006aa2        0x6 ./../../../../BitCloud/lib/libBc_All_Sec_Atmega1281_Rf212_Gcc.a(nwk.o)
 .text.nwkRejoinResponseFrameInd
                0x00006aa8      0x14e ./../../../../BitCloud/lib/libBc_All_Sec_Atmega1281_Rf212_Gcc.a(nwk.o)
 .text.nwkAssociate
                0x00006bf6       0x9e ./../../../../BitCloud/lib/libBc_All_Sec_Atmega1281_Rf212_Gcc.a(nwk.o)
 .text.MAC_AssociateConf
                0x00006c94       0xf6 ./../../../../BitCloud/lib/libBc_All_Sec_Atmega1281_Rf212_Gcc.a(nwk.o)
 .text.nwkFormationMacStartConf
                0x00006d8a       0x48 ./../../../../BitCloud/lib/libBc_All_Sec_Atmega1281_Rf212_Gcc.a(nwk.o)
 .text.nwkResetMacStartConf
                0x00006dd2       0x50 ./../../../../BitCloud/lib/libBc_All_Sec_Atmega1281_Rf212_Gcc.a(nwk.o)
 .text.NWK_JoinConf
                0x00006e22       0x48 ./../../../../BitCloud/lib/libBc_All_Sec_Atmega1281_Rf212_Gcc.a(nwk.o)
 .text.nwkJoinReqMacSetConf
                0x00006e6a      0x1d2 ./../../../../BitCloud/lib/libBc_All_Sec_Atmega1281_Rf212_Gcc.a(nwk.o)
 .text.nwkFormationTaskHandler
                0x0000703c      0x160 ./../../../../BitCloud/lib/libBc_All_Sec_Atmega1281_Rf212_Gcc.a(nwk.o)
 .text.nwkFormationMacEDScanConf
                0x0000719c       0xfc ./../../../../BitCloud/lib/libBc_All_Sec_Atmega1281_Rf212_Gcc.a(nwk.o)
 .text.nwkResetRouteDiscoveryTable
                0x00007298       0xb2 ./../../../../BitCloud/lib/libBc_All_Sec_Atmega1281_Rf212_Gcc.a(nwk.o)
 .text.nwkResetNeighborTable
                0x0000734a       0x88 ./../../../../BitCloud/lib/libBc_All_Sec_Atmega1281_Rf212_Gcc.a(nwk.o)
 .text.nwkFormationMacSetConf
                0x000073d2      0x150 ./../../../../BitCloud/lib/libBc_All_Sec_Atmega1281_Rf212_Gcc.a(nwk.o)
 .text.nwkStartRouterTaskHandler
                0x00007522       0xd2 ./../../../../BitCloud/lib/libBc_All_Sec_Atmega1281_Rf212_Gcc.a(nwk.o)
 .text.nwkConfirmLeaveItselfTx
                0x000075f4       0x42 ./../../../../BitCloud/lib/libBc_All_Sec_Atmega1281_Rf212_Gcc.a(nwk.o)
 .text.nwkResetTaskHandler
                0x00007636       0x6a ./../../../../BitCloud/lib/libBc_All_Sec_Atmega1281_Rf212_Gcc.a(nwk.o)
 .text.nwkSyncTaskHandler
                0x000076a0       0xa8 ./../../../../BitCloud/lib/libBc_All_Sec_Atmega1281_Rf212_Gcc.a(nwk.o)
 .text.nwkSyncMacPollConf
                0x00007748       0x5e ./../../../../BitCloud/lib/libBc_All_Sec_Atmega1281_Rf212_Gcc.a(nwk.o)
 .text.responseWaitTimerFired
                0x000077a6       0x50 ./../../../../BitCloud/lib/libBc_All_Sec_Atmega1281_Rf212_Gcc.a(nwk.o)
 .text.nwkCheckBTT
                0x000077f6       0x22 ./../../../../BitCloud/lib/libBc_All_Sec_Atmega1281_Rf212_Gcc.a(nwk.o)
 .text.nwkCommandInd
                0x00007818       0x80 ./../../../../BitCloud/lib/libBc_All_Sec_Atmega1281_Rf212_Gcc.a(nwk.o)
 .text.nwkIsPassiveAckDone.clone.3
                0x00007898       0x70 ./../../../../BitCloud/lib/libBc_All_Sec_Atmega1281_Rf212_Gcc.a(nwk.o)
 .text.nwkTxDelayReq
                0x00007908      0x1bc ./../../../../BitCloud/lib/libBc_All_Sec_Atmega1281_Rf212_Gcc.a(nwk.o)
 .text.nwkAllocOutputPacket.clone.18
                0x00007ac4       0x4e ./../../../../BitCloud/lib/libBc_All_Sec_Atmega1281_Rf212_Gcc.a(nwk.o)
 .text.nwkTryToProcessCommandReq
                0x00007b12       0x2c ./../../../../BitCloud/lib/libBc_All_Sec_Atmega1281_Rf212_Gcc.a(nwk.o)
 .text.nwkCommandReq
                0x00007b3e       0x14 ./../../../../BitCloud/lib/libBc_All_Sec_Atmega1281_Rf212_Gcc.a(nwk.o)
 .text.nwkConfirmNetworkStatusTx
                0x00007b52       0x68 ./../../../../BitCloud/lib/libBc_All_Sec_Atmega1281_Rf212_Gcc.a(nwk.o)
 .text.nwkStatusReq
                0x00007bba       0x44 ./../../../../BitCloud/lib/libBc_All_Sec_Atmega1281_Rf212_Gcc.a(nwk.o)
 .text.nwkAddressConflictMacSetConf
                0x00007bfe       0x9a ./../../../../BitCloud/lib/libBc_All_Sec_Atmega1281_Rf212_Gcc.a(nwk.o)
 .text.nwkSendRouteErrorStatus.clone.16
                0x00007c98       0x3c ./../../../../BitCloud/lib/libBc_All_Sec_Atmega1281_Rf212_Gcc.a(nwk.o)
 .text.nwkLinkStatusTimerFired
                0x00007cd4       0x1c ./../../../../BitCloud/lib/libBc_All_Sec_Atmega1281_Rf212_Gcc.a(nwk.o)
 .text.nwkRejoinCmdPrepareAndSend
                0x00007cf0       0x30 ./../../../../BitCloud/lib/libBc_All_Sec_Atmega1281_Rf212_Gcc.a(nwk.o)
 .text.nwkJoinReqMacRxEnableConf
                0x00007d20       0x72 ./../../../../BitCloud/lib/libBc_All_Sec_Atmega1281_Rf212_Gcc.a(nwk.o)
 .text.nwkJoinReqMacGetConf
                0x00007d92       0x3e ./../../../../BitCloud/lib/libBc_All_Sec_Atmega1281_Rf212_Gcc.a(nwk.o)
 .text.nwkRemoveAllChildren.clone.17
                0x00007dd0       0xd6 ./../../../../BitCloud/lib/libBc_All_Sec_Atmega1281_Rf212_Gcc.a(nwk.o)
 .text.nwkFreePacket
                0x00007ea6       0x60 ./../../../../BitCloud/lib/libBc_All_Sec_Atmega1281_Rf212_Gcc.a(nwk.o)
 .text.nwkFreeInputPacket
                0x00007f06        0xa ./../../../../BitCloud/lib/libBc_All_Sec_Atmega1281_Rf212_Gcc.a(nwk.o)
 .text.nwkDecryptInputPacket
                0x00007f10       0xe0 ./../../../../BitCloud/lib/libBc_All_Sec_Atmega1281_Rf212_Gcc.a(nwk.o)
 .text.nwkTxConf
                0x00007ff0      0x1c8 ./../../../../BitCloud/lib/libBc_All_Sec_Atmega1281_Rf212_Gcc.a(nwk.o)
 .text.nwkDecryptOutputPacketConf
                0x000081b8       0x2a ./../../../../BitCloud/lib/libBc_All_Sec_Atmega1281_Rf212_Gcc.a(nwk.o)
 .text.NWK_GetShortAddr
                0x000081e2        0xa ./../../../../BitCloud/lib/libBc_All_Sec_Atmega1281_Rf212_Gcc.a(nwk.o)
                0x000081e2                NWK_GetShortAddr
 .text.NWK_IsStaticAddressingMode
                0x000081ec        0x6 ./../../../../BitCloud/lib/libBc_All_Sec_Atmega1281_Rf212_Gcc.a(nwk.o)
                0x000081ec                NWK_IsStaticAddressingMode
 .text.NWK_RemoveFromAddressMap
                0x000081f2       0x12 ./../../../../BitCloud/lib/libBc_All_Sec_Atmega1281_Rf212_Gcc.a(nwk.o)
                0x000081f2                NWK_RemoveFromAddressMap
 .text.NWK_NetworkDiscoveryReq
                0x00008204       0x20 ./../../../../BitCloud/lib/libBc_All_Sec_Atmega1281_Rf212_Gcc.a(nwk.o)
                0x00008204                NWK_NetworkDiscoveryReq
 .text.MAC_BeaconNotifyInd
                0x00008224      0x478 ./../../../../BitCloud/lib/libBc_All_Sec_Atmega1281_Rf212_Gcc.a(nwk.o)
                0x00008224                MAC_BeaconNotifyInd
 .text.NWK_EDScanReq
                0x0000869c       0x20 ./../../../../BitCloud/lib/libBc_All_Sec_Atmega1281_Rf212_Gcc.a(nwk.o)
                0x0000869c                NWK_EDScanReq
 .text.NWK_NetworkFormationReq
                0x000086bc       0x20 ./../../../../BitCloud/lib/libBc_All_Sec_Atmega1281_Rf212_Gcc.a(nwk.o)
                0x000086bc                NWK_NetworkFormationReq
 .text.NWK_IsGroupMember
                0x000086dc       0x3c ./../../../../BitCloud/lib/libBc_All_Sec_Atmega1281_Rf212_Gcc.a(nwk.o)
                0x000086dc                NWK_IsGroupMember
 .text.nwkRetransmitInputPacket
                0x00008718      0x126 ./../../../../BitCloud/lib/libBc_All_Sec_Atmega1281_Rf212_Gcc.a(nwk.o)
 .text.NWK_DataResp
                0x0000883e       0x16 ./../../../../BitCloud/lib/libBc_All_Sec_Atmega1281_Rf212_Gcc.a(nwk.o)
                0x0000883e                NWK_DataResp
 .text.nwkRxIndication
                0x00008854      0x168 ./../../../../BitCloud/lib/libBc_All_Sec_Atmega1281_Rf212_Gcc.a(nwk.o)
 .text.NWK_ResetGroups
                0x000089bc       0x5e ./../../../../BitCloud/lib/libBc_All_Sec_Atmega1281_Rf212_Gcc.a(nwk.o)
                0x000089bc                NWK_ResetGroups
 .text.NWK_GetParentShortAddr
                0x00008a1a        0xa ./../../../../BitCloud/lib/libBc_All_Sec_Atmega1281_Rf212_Gcc.a(nwk.o)
                0x00008a1a                NWK_GetParentShortAddr
 .text.NWK_GetPanId
                0x00008a24        0xa ./../../../../BitCloud/lib/libBc_All_Sec_Atmega1281_Rf212_Gcc.a(nwk.o)
                0x00008a24                NWK_GetPanId
 .text.NWK_GetExtPanId
                0x00008a2e       0x22 ./../../../../BitCloud/lib/libBc_All_Sec_Atmega1281_Rf212_Gcc.a(nwk.o)
                0x00008a2e                NWK_GetExtPanId
 .text.NWK_SetExtPanId
                0x00008a50       0x34 ./../../../../BitCloud/lib/libBc_All_Sec_Atmega1281_Rf212_Gcc.a(nwk.o)
                0x00008a50                NWK_SetExtPanId
 .text.NWK_GetDeviceType
                0x00008a84        0x6 ./../../../../BitCloud/lib/libBc_All_Sec_Atmega1281_Rf212_Gcc.a(nwk.o)
                0x00008a84                NWK_GetDeviceType
 .text.NWK_GetLogicalChannel
                0x00008a8a        0x6 ./../../../../BitCloud/lib/libBc_All_Sec_Atmega1281_Rf212_Gcc.a(nwk.o)
                0x00008a8a                NWK_GetLogicalChannel
 .text.NWK_SetLogicalChannel
                0x00008a90        0x6 ./../../../../BitCloud/lib/libBc_All_Sec_Atmega1281_Rf212_Gcc.a(nwk.o)
                0x00008a90                NWK_SetLogicalChannel
 .text.NWK_GetBroadcastDeliveryTime
                0x00008a96       0x12 ./../../../../BitCloud/lib/libBc_All_Sec_Atmega1281_Rf212_Gcc.a(nwk.o)
                0x00008a96                NWK_GetBroadcastDeliveryTime
 .text.NWK_GetManagerAddr
                0x00008aa8        0xa ./../../../../BitCloud/lib/libBc_All_Sec_Atmega1281_Rf212_Gcc.a(nwk.o)
                0x00008aa8                NWK_GetManagerAddr
 .text.NWK_SetManagerAddr
                0x00008ab2        0xa ./../../../../BitCloud/lib/libBc_All_Sec_Atmega1281_Rf212_Gcc.a(nwk.o)
                0x00008ab2                NWK_SetManagerAddr
 .text.NWK_SetUpdateId
                0x00008abc        0xa ./../../../../BitCloud/lib/libBc_All_Sec_Atmega1281_Rf212_Gcc.a(nwk.o)
                0x00008abc                NWK_SetUpdateId
 .text.NWK_GetTransmitCouner
                0x00008ac6       0x14 ./../../../../BitCloud/lib/libBc_All_Sec_Atmega1281_Rf212_Gcc.a(nwk.o)
                0x00008ac6                NWK_GetTransmitCouner
 .text.NWK_GetTransmitFailureCounter
                0x00008ada       0x14 ./../../../../BitCloud/lib/libBc_All_Sec_Atmega1281_Rf212_Gcc.a(nwk.o)
                0x00008ada                NWK_GetTransmitFailureCounter
 .text.NWK_ResetTransmitCounters
                0x00008aee       0x12 ./../../../../BitCloud/lib/libBc_All_Sec_Atmega1281_Rf212_Gcc.a(nwk.o)
                0x00008aee                NWK_ResetTransmitCounters
 .text.NWK_JoinReq
                0x00008b00       0x20 ./../../../../BitCloud/lib/libBc_All_Sec_Atmega1281_Rf212_Gcc.a(nwk.o)
                0x00008b00                NWK_JoinReq
 .text.NWK_RemoveNeighbor
                0x00008b20       0x90 ./../../../../BitCloud/lib/libBc_All_Sec_Atmega1281_Rf212_Gcc.a(nwk.o)
                0x00008b20                NWK_RemoveNeighbor
 .text.neighborTimerFired
                0x00008bb0       0x90 ./../../../../BitCloud/lib/libBc_All_Sec_Atmega1281_Rf212_Gcc.a(nwk.o)
 .text.NWK_LeaveReq
                0x00008c40       0x20 ./../../../../BitCloud/lib/libBc_All_Sec_Atmega1281_Rf212_Gcc.a(nwk.o)
                0x00008c40                NWK_LeaveReq
 .text.NWK_LoopbackTxReq
                0x00008c60       0x20 ./../../../../BitCloud/lib/libBc_All_Sec_Atmega1281_Rf212_Gcc.a(nwk.o)
                0x00008c60                NWK_LoopbackTxReq
 .text.nwkDataConfTaskHandler
                0x00008c80       0x5a ./../../../../BitCloud/lib/libBc_All_Sec_Atmega1281_Rf212_Gcc.a(nwk.o)
 .text.NWK_FindNeighborByShortAddr
                0x00008cda       0x30 ./../../../../BitCloud/lib/libBc_All_Sec_Atmega1281_Rf212_Gcc.a(nwk.o)
                0x00008cda                NWK_FindNeighborByShortAddr
 .text.nwkAllocNonConflAddr
                0x00008d0a       0xc0 ./../../../../BitCloud/lib/libBc_All_Sec_Atmega1281_Rf212_Gcc.a(nwk.o)
 .text.NWK_NetworkDiscoveryConf
                0x00008dca       0xa2 ./../../../../BitCloud/lib/libBc_All_Sec_Atmega1281_Rf212_Gcc.a(nwk.o)
 .text.nwkJoinReqTaskHandler
                0x00008e6c      0x19a ./../../../../BitCloud/lib/libBc_All_Sec_Atmega1281_Rf212_Gcc.a(nwk.o)
 .text.nwkAllocateShortAddr.clone.11
                0x00009006       0x5a ./../../../../BitCloud/lib/libBc_All_Sec_Atmega1281_Rf212_Gcc.a(nwk.o)
 .text.nwkResolveAddressConflict
                0x00009060      0x298 ./../../../../BitCloud/lib/libBc_All_Sec_Atmega1281_Rf212_Gcc.a(nwk.o)
 .text.nwkAddressConflictTaskHandler
                0x000092f8       0xa0 ./../../../../BitCloud/lib/libBc_All_Sec_Atmega1281_Rf212_Gcc.a(nwk.o)
 .text.nwkStatusFrameInd
                0x00009398       0x46 ./../../../../BitCloud/lib/libBc_All_Sec_Atmega1281_Rf212_Gcc.a(nwk.o)
 .text.nwkAddChild
                0x000093de      0x31e ./../../../../BitCloud/lib/libBc_All_Sec_Atmega1281_Rf212_Gcc.a(nwk.o)
 .text.nwkRejoinRequestFrameInd
                0x000096fc      0x15c ./../../../../BitCloud/lib/libBc_All_Sec_Atmega1281_Rf212_Gcc.a(nwk.o)
 .text.MAC_AssociateInd
                0x00009858       0xd0 ./../../../../BitCloud/lib/libBc_All_Sec_Atmega1281_Rf212_Gcc.a(nwk.o)
                0x00009858                MAC_AssociateInd
 .text.nwkGetNextHop
                0x00009928      0x23a ./../../../../BitCloud/lib/libBc_All_Sec_Atmega1281_Rf212_Gcc.a(nwk.o)
 .text.nwkResetMacSetConf
                0x00009b62      0x1ca ./../../../../BitCloud/lib/libBc_All_Sec_Atmega1281_Rf212_Gcc.a(nwk.o)
 .text.nwkProcessRouteRequest
                0x00009d2c      0x232 ./../../../../BitCloud/lib/libBc_All_Sec_Atmega1281_Rf212_Gcc.a(nwk.o)
 .text.NWK_GetExtByShortAddress
                0x00009f5e       0x5c ./../../../../BitCloud/lib/libBc_All_Sec_Atmega1281_Rf212_Gcc.a(nwk.o)
                0x00009f5e                NWK_GetExtByShortAddress
 .text.nwkPrepareRouteRequestTx
                0x00009fba      0x164 ./../../../../BitCloud/lib/libBc_All_Sec_Atmega1281_Rf212_Gcc.a(nwk.o)
 .text.nwkPrepareNetworkStatusTx
                0x0000a11e      0x102 ./../../../../BitCloud/lib/libBc_All_Sec_Atmega1281_Rf212_Gcc.a(nwk.o)
 .text.nwkPrepareRouteReplyTx
                0x0000a220      0x2f8 ./../../../../BitCloud/lib/libBc_All_Sec_Atmega1281_Rf212_Gcc.a(nwk.o)
 .text.NWK_FindNeighborByExtAddr
                0x0000a518       0x68 ./../../../../BitCloud/lib/libBc_All_Sec_Atmega1281_Rf212_Gcc.a(nwk.o)
                0x0000a518                NWK_FindNeighborByExtAddr
 .text.nwkLeaveTaskHandler
                0x0000a580      0x16a ./../../../../BitCloud/lib/libBc_All_Sec_Atmega1281_Rf212_Gcc.a(nwk.o)
 .text.nwkConfirmLeaveChildTx
                0x0000a6ea       0x84 ./../../../../BitCloud/lib/libBc_All_Sec_Atmega1281_Rf212_Gcc.a(nwk.o)
 .text.nwkConfirmJoinRespTx
                0x0000a76e       0x4e ./../../../../BitCloud/lib/libBc_All_Sec_Atmega1281_Rf212_Gcc.a(nwk.o)
 .text.nwkConfirmAddrConflictJoinRespTx
                0x0000a7bc       0x3c ./../../../../BitCloud/lib/libBc_All_Sec_Atmega1281_Rf212_Gcc.a(nwk.o)
 .text.nwkLeaveFrameInd
                0x0000a7f8       0xe8 ./../../../../BitCloud/lib/libBc_All_Sec_Atmega1281_Rf212_Gcc.a(nwk.o)
 .text.nwkJoinIndMacCommStatusInd
                0x0000a8e0       0x54 ./../../../../BitCloud/lib/libBc_All_Sec_Atmega1281_Rf212_Gcc.a(nwk.o)
 .text.NWK_GetShortByExtAddress
                0x0000a934       0x60 ./../../../../BitCloud/lib/libBc_All_Sec_Atmega1281_Rf212_Gcc.a(nwk.o)
                0x0000a934                NWK_GetShortByExtAddress
 .text.NWK_LinkShortAndExtAddress
                0x0000a994       0xd8 ./../../../../BitCloud/lib/libBc_All_Sec_Atmega1281_Rf212_Gcc.a(nwk.o)
                0x0000a994                NWK_LinkShortAndExtAddress
 .text.nwkUpdateInternalTables
                0x0000aa6c      0x138 ./../../../../BitCloud/lib/libBc_All_Sec_Atmega1281_Rf212_Gcc.a(nwk.o)
 .text.nwkRouteReplyFrameInd
                0x0000aba4      0x18c ./../../../../BitCloud/lib/libBc_All_Sec_Atmega1281_Rf212_Gcc.a(nwk.o)
 .text.nwkRouteRequestFrameInd
                0x0000ad30       0xb6 ./../../../../BitCloud/lib/libBc_All_Sec_Atmega1281_Rf212_Gcc.a(nwk.o)
 .text.nwkDecryptFrameConf
                0x0000ade6      0x11c ./../../../../BitCloud/lib/libBc_All_Sec_Atmega1281_Rf212_Gcc.a(nwk.o)
 .text.NWK_GetNeighborTable
                0x0000af02        0x6 ./../../../../BitCloud/lib/libBc_All_Sec_Atmega1281_Rf212_Gcc.a(nwk.o)
                0x0000af02                NWK_GetNeighborTable
 .text.NWK_GetNeighborsLqi
                0x0000af08       0x3e ./../../../../BitCloud/lib/libBc_All_Sec_Atmega1281_Rf212_Gcc.a(nwk.o)
                0x0000af08                NWK_GetNeighborsLqi
 .text.NWK_IsKnownChild
                0x0000af46       0x24 ./../../../../BitCloud/lib/libBc_All_Sec_Atmega1281_Rf212_Gcc.a(nwk.o)
                0x0000af46                NWK_IsKnownChild
 .text.NWK_AuthenticateNeighbor
                0x0000af6a       0x36 ./../../../../BitCloud/lib/libBc_All_Sec_Atmega1281_Rf212_Gcc.a(nwk.o)
                0x0000af6a                NWK_AuthenticateNeighbor
 .text.MAC_OrphanInd
                0x0000afa0        0x2 ./../../../../BitCloud/lib/libBc_All_Sec_Atmega1281_Rf212_Gcc.a(nwk.o)
                0x0000afa0                MAC_OrphanInd
 .text.NWK_AllocDataReq
                0x0000afa2       0x26 ./../../../../BitCloud/lib/libBc_All_Sec_Atmega1281_Rf212_Gcc.a(nwk.o)
                0x0000afa2                NWK_AllocDataReq
 .text.NWK_FreeDataReq
                0x0000afc8        0xa ./../../../../BitCloud/lib/libBc_All_Sec_Atmega1281_Rf212_Gcc.a(nwk.o)
                0x0000afc8                NWK_FreeDataReq
 .text.NWK_DataTransformIndToReq
                0x0000afd2       0x6a ./../../../../BitCloud/lib/libBc_All_Sec_Atmega1281_Rf212_Gcc.a(nwk.o)
                0x0000afd2                NWK_DataTransformIndToReq
 .text.NWK_PermitJoiningReq
                0x0000b03c       0x2c ./../../../../BitCloud/lib/libBc_All_Sec_Atmega1281_Rf212_Gcc.a(nwk.o)
                0x0000b03c                NWK_PermitJoiningReq
 .text.NWK_ResetReq
                0x0000b068       0x20 ./../../../../BitCloud/lib/libBc_All_Sec_Atmega1281_Rf212_Gcc.a(nwk.o)
                0x0000b068                NWK_ResetReq
 .text.NWK_Init
                0x0000b088       0x20 ./../../../../BitCloud/lib/libBc_All_Sec_Atmega1281_Rf212_Gcc.a(nwk.o)
                0x0000b088                NWK_Init
 .text.NWK_RouteDiscoveryReq
                0x0000b0a8       0x34 ./../../../../BitCloud/lib/libBc_All_Sec_Atmega1281_Rf212_Gcc.a(nwk.o)
                0x0000b0a8                NWK_RouteDiscoveryReq
 .text.NWK_GetSecureAllFrames
                0x0000b0dc        0x6 ./../../../../BitCloud/lib/libBc_All_Sec_Atmega1281_Rf212_Gcc.a(nwk.o)
                0x0000b0dc                NWK_GetSecureAllFrames
 .text.NWK_SetKey
                0x0000b0e2       0xd6 ./../../../../BitCloud/lib/libBc_All_Sec_Atmega1281_Rf212_Gcc.a(nwk.o)
                0x0000b0e2                NWK_SetKey
 .text.NWK_ActivateKey
                0x0000b1b8       0x22 ./../../../../BitCloud/lib/libBc_All_Sec_Atmega1281_Rf212_Gcc.a(nwk.o)
                0x0000b1b8                NWK_ActivateKey
 .text.NWK_IsAnyKeyActivated
                0x0000b1da       0x12 ./../../../../BitCloud/lib/libBc_All_Sec_Atmega1281_Rf212_Gcc.a(nwk.o)
                0x0000b1da                NWK_IsAnyKeyActivated
 .text.nwkJoinReqMacPollConf
                0x0000b1ec       0x8c ./../../../../BitCloud/lib/libBc_All_Sec_Atmega1281_Rf212_Gcc.a(nwk.o)
 .text.nwkIsEncryptionRequired.clone.15
                0x0000b278       0x4a ./../../../../BitCloud/lib/libBc_All_Sec_Atmega1281_Rf212_Gcc.a(nwk.o)
 .text.NWK_GetActiveKeySeqNumber
                0x0000b2c2       0x28 ./../../../../BitCloud/lib/libBc_All_Sec_Atmega1281_Rf212_Gcc.a(nwk.o)
                0x0000b2c2                NWK_GetActiveKeySeqNumber
 .text.NWK_GetActiveKey
                0x0000b2ea       0x20 ./../../../../BitCloud/lib/libBc_All_Sec_Atmega1281_Rf212_Gcc.a(nwk.o)
                0x0000b2ea                NWK_GetActiveKey
 .text.nwkProcessDelayStatus
                0x0000b30a      0x15c ./../../../../BitCloud/lib/libBc_All_Sec_Atmega1281_Rf212_Gcc.a(nwk.o)
 .text.MAC_DataConf
                0x0000b466       0x30 ./../../../../BitCloud/lib/libBc_All_Sec_Atmega1281_Rf212_Gcc.a(nwk.o)
 .text.nwkTxDelayConf
                0x0000b496        0xe ./../../../../BitCloud/lib/libBc_All_Sec_Atmega1281_Rf212_Gcc.a(nwk.o)
 .text.nwkLeaveReqMacResetConf
                0x0000b4a4       0xf6 ./../../../../BitCloud/lib/libBc_All_Sec_Atmega1281_Rf212_Gcc.a(nwk.o)
 .text.nwkTxDelayTimerFired
                0x0000b59a       0x90 ./../../../../BitCloud/lib/libBc_All_Sec_Atmega1281_Rf212_Gcc.a(nwk.o)
 .text.NWK_GetUpdatedSecOutCounter
                0x0000b62a       0x58 ./../../../../BitCloud/lib/libBc_All_Sec_Atmega1281_Rf212_Gcc.a(nwk.o)
                0x0000b62a                NWK_GetUpdatedSecOutCounter
 .text.nwkTransmitOutputPacket
                0x0000b682       0xd6 ./../../../../BitCloud/lib/libBc_All_Sec_Atmega1281_Rf212_Gcc.a(nwk.o)
 .text.nwkSendDiscoveryCommand
                0x0000b758       0x74 ./../../../../BitCloud/lib/libBc_All_Sec_Atmega1281_Rf212_Gcc.a(nwk.o)
 .text.nwkRouteDiscoveryTableTaskHandler
                0x0000b7cc       0x9a ./../../../../BitCloud/lib/libBc_All_Sec_Atmega1281_Rf212_Gcc.a(nwk.o)
 .text.nwkEncryptOutputPacketConf
                0x0000b866       0x44 ./../../../../BitCloud/lib/libBc_All_Sec_Atmega1281_Rf212_Gcc.a(nwk.o)
 .text.nwkTxTaskHandler
                0x0000b8aa      0x1a8 ./../../../../BitCloud/lib/libBc_All_Sec_Atmega1281_Rf212_Gcc.a(nwk.o)
 .text.nwkMeshRouteDiscoveryConf
                0x0000ba52       0x6c ./../../../../BitCloud/lib/libBc_All_Sec_Atmega1281_Rf212_Gcc.a(nwk.o)
 .text.NWK_ResetAllSecurityCounters
                0x0000babe       0x1a ./../../../../BitCloud/lib/libBc_All_Sec_Atmega1281_Rf212_Gcc.a(nwk.o)
                0x0000babe                NWK_ResetAllSecurityCounters
 .text.NWK_ResetSecurityIB
                0x0000bad8       0x5e ./../../../../BitCloud/lib/libBc_All_Sec_Atmega1281_Rf212_Gcc.a(nwk.o)
                0x0000bad8                NWK_ResetSecurityIB
 .text.nwkResetMacResetConf
                0x0000bb36      0x56a ./../../../../BitCloud/lib/libBc_All_Sec_Atmega1281_Rf212_Gcc.a(nwk.o)
 .text.NWK_IsSecurityProvided
                0x0000c0a0       0x38 ./../../../../BitCloud/lib/libBc_All_Sec_Atmega1281_Rf212_Gcc.a(nwk.o)
                0x0000c0a0                NWK_IsSecurityProvided
 .text.nwkIsTransit
                0x0000c0d8       0x2c ./../../../../BitCloud/lib/libBc_All_Sec_Atmega1281_Rf212_Gcc.a(nwk.o)
 .text.nwkRxRetransmit
                0x0000c104       0xbe ./../../../../BitCloud/lib/libBc_All_Sec_Atmega1281_Rf212_Gcc.a(nwk.o)
 .text.MAC_DataInd
                0x0000c1c2      0x3ac ./../../../../BitCloud/lib/libBc_All_Sec_Atmega1281_Rf212_Gcc.a(nwk.o)
                0x0000c1c2                MAC_DataInd
 .text.NWK_DataReq
                0x0000c56e      0x29e ./../../../../BitCloud/lib/libBc_All_Sec_Atmega1281_Rf212_Gcc.a(nwk.o)
                0x0000c56e                NWK_DataReq
 .text.NWK_StartRouterReq
                0x0000c80c       0x20 ./../../../../BitCloud/lib/libBc_All_Sec_Atmega1281_Rf212_Gcc.a(nwk.o)
                0x0000c80c                NWK_StartRouterReq
 .text.NWK_IsActiveTransaction
                0x0000c82c       0x54 ./../../../../BitCloud/lib/libBc_All_Sec_Atmega1281_Rf212_Gcc.a(nwk.o)
                0x0000c82c                NWK_IsActiveTransaction
 .text.NWK_LaunchActivities
                0x0000c880       0x12 ./../../../../BitCloud/lib/libBc_All_Sec_Atmega1281_Rf212_Gcc.a(nwk.o)
                0x0000c880                NWK_LaunchActivities
 .text.NWK_StopActivities
                0x0000c892       0x12 ./../../../../BitCloud/lib/libBc_All_Sec_Atmega1281_Rf212_Gcc.a(nwk.o)
                0x0000c892                NWK_StopActivities
 .text.NWK_DeviceIsAbleToOperateInNetwork
                0x0000c8a4       0x36 ./../../../../BitCloud/lib/libBc_All_Sec_Atmega1281_Rf212_Gcc.a(nwk.o)
                0x0000c8a4                NWK_DeviceIsAbleToOperateInNetwork
 .text.NWK_GatherPowerFailureInfo
                0x0000c8da       0x24 ./../../../../BitCloud/lib/libBc_All_Sec_Atmega1281_Rf212_Gcc.a(nwk.o)
                0x0000c8da                NWK_GatherPowerFailureInfo
 .text.NWK_SyncReq
                0x0000c8fe       0x20 ./../../../../BitCloud/lib/libBc_All_Sec_Atmega1281_Rf212_Gcc.a(nwk.o)
                0x0000c8fe                NWK_SyncReq
 .text.MAC_PollInd
                0x0000c91e       0x52 ./../../../../BitCloud/lib/libBc_All_Sec_Atmega1281_Rf212_Gcc.a(nwk.o)
                0x0000c91e                MAC_PollInd
 .text.MAC_SyncLossInd
                0x0000c970        0x2 ./../../../../BitCloud/lib/libBc_All_Sec_Atmega1281_Rf212_Gcc.a(nwk.o)
                0x0000c970                MAC_SyncLossInd
 .text.NWK_TaskHandler
                0x0000c972       0xd8 ./../../../../BitCloud/lib/libBc_All_Sec_Atmega1281_Rf212_Gcc.a(nwk.o)
                0x0000c972                NWK_TaskHandler
 .text.NWK_GetUnicastDeliveryTime
                0x0000ca4a       0x6a ./../../../../BitCloud/lib/libBc_All_Sec_Atmega1281_Rf212_Gcc.a(nwk.o)
                0x0000ca4a                NWK_GetUnicastDeliveryTime
 .text.deleteHeadQueueElem
                0x0000cab4       0x22 ./../../../../BitCloud/lib/libBc_All_Sec_Atmega1281_Rf212_Gcc.a(queue.o)
                0x0000cab4                deleteHeadQueueElem
 .text.deleteQueueElem
                0x0000cad6       0x4a ./../../../../BitCloud/lib/libBc_All_Sec_Atmega1281_Rf212_Gcc.a(queue.o)
                0x0000cad6                deleteQueueElem
 .text.isQueueElem
                0x0000cb20       0x22 ./../../../../BitCloud/lib/libBc_All_Sec_Atmega1281_Rf212_Gcc.a(queue.o)
                0x0000cb20                isQueueElem
 .text.putQueueElem
                0x0000cb42       0x40 ./../../../../BitCloud/lib/libBc_All_Sec_Atmega1281_Rf212_Gcc.a(queue.o)
                0x0000cb42                putQueueElem
 .text.SSP_TaskHandler
                0x0000cb82       0x64 ./../../../../BitCloud/lib/libBc_All_Sec_Atmega1281_Rf212_Gcc.a(sspManager.o)
                0x0000cb82                SSP_TaskHandler
 .text.sspPostTask
                0x0000cbe6       0x32 ./../../../../BitCloud/lib/libBc_All_Sec_Atmega1281_Rf212_Gcc.a(sspManager.o)
                0x0000cbe6                sspPostTask
 .text.putReqInQueue
                0x0000cc18       0x2a ./../../../../BitCloud/lib/libBc_All_Sec_Atmega1281_Rf212_Gcc.a(sspManager.o)
 .text.sspSendConfToUpperLayer
                0x0000cc42       0x5a ./../../../../BitCloud/lib/libBc_All_Sec_Atmega1281_Rf212_Gcc.a(sspManager.o)
                0x0000cc42                sspSendConfToUpperLayer
 .text.SSP_Init
                0x0000cc9c       0x14 ./../../../../BitCloud/lib/libBc_All_Sec_Atmega1281_Rf212_Gcc.a(sspManager.o)
                0x0000cc9c                SSP_Init
 .text.SSP_EncryptFrameReq
                0x0000ccb0        0xa ./../../../../BitCloud/lib/libBc_All_Sec_Atmega1281_Rf212_Gcc.a(sspManager.o)
                0x0000ccb0                SSP_EncryptFrameReq
 .text.SSP_DecryptFrameReq
                0x0000ccba        0xc ./../../../../BitCloud/lib/libBc_All_Sec_Atmega1281_Rf212_Gcc.a(sspManager.o)
                0x0000ccba                SSP_DecryptFrameReq
 .text.SSP_ParseAuxiliaryHeader
                0x0000ccc6        0x6 ./../../../../BitCloud/lib/libBc_All_Sec_Atmega1281_Rf212_Gcc.a(sspManager.o)
                0x0000ccc6                SSP_ParseAuxiliaryHeader
 .text.SSP_GenerateChallenge
                0x0000cccc        0xe ./../../../../BitCloud/lib/libBc_All_Sec_Atmega1281_Rf212_Gcc.a(sspManager.o)
                0x0000cccc                SSP_GenerateChallenge
 .text.isMicCorrect
                0x0000ccda       0x1e ./../../../../BitCloud/lib/libBc_All_Sec_Atmega1281_Rf212_Gcc.a(sspSfpHandler.o)
 .text.finishEncryption
                0x0000ccf8       0x38 ./../../../../BitCloud/lib/libBc_All_Sec_Atmega1281_Rf212_Gcc.a(sspSfpHandler.o)
 .text.ccmConfirm
                0x0000cd30      0x10c ./../../../../BitCloud/lib/libBc_All_Sec_Atmega1281_Rf212_Gcc.a(sspSfpHandler.o)
 .text.sspEncryptFrameReqHandler
                0x0000ce3c      0x214 ./../../../../BitCloud/lib/libBc_All_Sec_Atmega1281_Rf212_Gcc.a(sspSfpHandler.o)
                0x0000ce3c                sspEncryptFrameReqHandler
 .text.sspDecryptFrameReqHandler
                0x0000d050      0x24c ./../../../../BitCloud/lib/libBc_All_Sec_Atmega1281_Rf212_Gcc.a(sspSfpHandler.o)
                0x0000d050                sspDecryptFrameReqHandler
 .text.sspParseAuxiliaryHeaderHandler
                0x0000d29c       0x60 ./../../../../BitCloud/lib/libBc_All_Sec_Atmega1281_Rf212_Gcc.a(sspSfpHandler.o)
                0x0000d29c                sspParseAuxiliaryHeaderHandler
 .text.SSP_IsKeyValid
                0x0000d2fc       0x1c ./../../../../BitCloud/lib/libBc_All_Sec_Atmega1281_Rf212_Gcc.a(sspSfpHandler.o)
                0x0000d2fc                SSP_IsKeyValid
 .text.SYS_DuplicateTableReset
                0x0000d318       0x4e ./../../../../BitCloud/lib/libBc_All_Sec_Atmega1281_Rf212_Gcc.a(sysDuplicateTable.o)
                0x0000d318                SYS_DuplicateTableReset
 .text.duplicateTableUpdate
                0x0000d366       0x8e ./../../../../BitCloud/lib/libBc_All_Sec_Atmega1281_Rf212_Gcc.a(sysDuplicateTable.o)
                0x0000d366                duplicateTableUpdate
 .text.SYS_DuplicateTableCheck
                0x0000d3f4      0x10c ./../../../../BitCloud/lib/libBc_All_Sec_Atmega1281_Rf212_Gcc.a(sysDuplicateTable.o)
                0x0000d3f4                SYS_DuplicateTableCheck
 .text.SYS_DuplicateTableClear
                0x0000d500       0x7c ./../../../../BitCloud/lib/libBc_All_Sec_Atmega1281_Rf212_Gcc.a(sysDuplicateTable.o)
                0x0000d500                SYS_DuplicateTableClear
 .text.SYS_PostEvent
                0x0000d57c       0x7a ./../../../../BitCloud/lib/libBc_All_Sec_Atmega1281_Rf212_Gcc.a(sysEvents.o)
                0x0000d57c                SYS_PostEvent
 .text.SYS_IsEventDeliverable
                0x0000d5f6       0x38 ./../../../../BitCloud/lib/libBc_All_Sec_Atmega1281_Rf212_Gcc.a(sysEvents.o)
                0x0000d5f6                SYS_IsEventDeliverable
 .text.SYS_IsEventSubscriber
                0x0000d62e       0x32 ./../../../../BitCloud/lib/libBc_All_Sec_Atmega1281_Rf212_Gcc.a(sysEvents.o)
                0x0000d62e                SYS_IsEventSubscriber
 .text.SYS_SubscribeToEvent
                0x0000d660       0x70 ./../../../../BitCloud/lib/libBc_All_Sec_Atmega1281_Rf212_Gcc.a(sysEvents.o)
                0x0000d660                SYS_SubscribeToEvent
 .text.SYS_RunTask
                0x0000d6d0       0x76 ./../../../../BitCloud/lib/libBc_All_Sec_Atmega1281_Rf212_Gcc.a(taskManager.o)
                0x0000d6d0                SYS_RunTask
 .text.SYS_ForceRunTask
                0x0000d746        0x6 ./../../../../BitCloud/lib/libBc_All_Sec_Atmega1281_Rf212_Gcc.a(taskManager.o)
                0x0000d746                SYS_ForceRunTask
 .text.SYS_SysInit
                0x0000d74c       0x22 ./../../../../BitCloud/lib/libBc_All_Sec_Atmega1281_Rf212_Gcc.a(taskManager.o)
                0x0000d74c                SYS_SysInit
 .text.tcPostTask
                0x0000d76e       0x32 ./../../../../BitCloud/lib/libBc_All_Sec_Atmega1281_Rf212_Gcc.a(tcTaskManager.o)
                0x0000d76e                tcPostTask
 .text.TC_TaskHandler
                0x0000d7a0       0x6c ./../../../../BitCloud/lib/libBc_All_Sec_Atmega1281_Rf212_Gcc.a(tcTaskManager.o)
                0x0000d7a0                TC_TaskHandler
 .text.tcResetTaskManager
                0x0000d80c        0x6 ./../../../../BitCloud/lib/libBc_All_Sec_Atmega1281_Rf212_Gcc.a(tcTaskManager.o)
                0x0000d80c                tcResetTaskManager
 .text.APS_StopConf
                0x0000d812       0x14 ./../../../../BitCloud/lib/libBc_All_Sec_Atmega1281_Rf212_Gcc.a(zdo.o)
 .text.zdoNodeManagerNwkLeaveConf
                0x0000d826        0x6 ./../../../../BitCloud/lib/libBc_All_Sec_Atmega1281_Rf212_Gcc.a(zdo.o)
 .text.zdoNwkManagerReset
                0x0000d82c       0x10 ./../../../../BitCloud/lib/libBc_All_Sec_Atmega1281_Rf212_Gcc.a(zdo.o)
 .text.updateDeviceConf
                0x0000d83c        0xc ./../../../../BitCloud/lib/libBc_All_Sec_Atmega1281_Rf212_Gcc.a(zdo.o)
 .text.zdoStackResetConf
                0x0000d848       0x1c ./../../../../BitCloud/lib/libBc_All_Sec_Atmega1281_Rf212_Gcc.a(zdo.o)
 .text.zdoSecurityManagerNwkLeaveConf
                0x0000d864        0x2 ./../../../../BitCloud/lib/libBc_All_Sec_Atmega1281_Rf212_Gcc.a(zdo.o)
 .text.zdoPostTask
                0x0000d866       0x3c ./../../../../BitCloud/lib/libBc_All_Sec_Atmega1281_Rf212_Gcc.a(zdo.o)
 .text.zdoCheckStartNetworkRequestsQueue
                0x0000d8a2       0x38 ./../../../../BitCloud/lib/libBc_All_Sec_Atmega1281_Rf212_Gcc.a(zdo.o)
 .text.zdoStartNetworkFree
                0x0000d8da        0xe ./../../../../BitCloud/lib/libBc_All_Sec_Atmega1281_Rf212_Gcc.a(zdo.o)
 .text.startConfirm
                0x0000d8e8       0x2e ./../../../../BitCloud/lib/libBc_All_Sec_Atmega1281_Rf212_Gcc.a(zdo.o)
 .text.sleepConfirm
                0x0000d916       0x24 ./../../../../BitCloud/lib/libBc_All_Sec_Atmega1281_Rf212_Gcc.a(zdo.o)
 .text.wakeUpConfirm
                0x0000d93a       0x24 ./../../../../BitCloud/lib/libBc_All_Sec_Atmega1281_Rf212_Gcc.a(zdo.o)
 .text.securityWaitTimerFired
                0x0000d95e        0xe ./../../../../BitCloud/lib/libBc_All_Sec_Atmega1281_Rf212_Gcc.a(zdo.o)
 .text.zdoUnpostTask
                0x0000d96c       0x28 ./../../../../BitCloud/lib/libBc_All_Sec_Atmega1281_Rf212_Gcc.a(zdo.o)
 .text.zdoSetZdpDataReqState
                0x0000d994       0x22 ./../../../../BitCloud/lib/libBc_All_Sec_Atmega1281_Rf212_Gcc.a(zdo.o)
 .text.confirmResponse
                0x0000d9b6        0x8 ./../../../../BitCloud/lib/libBc_All_Sec_Atmega1281_Rf212_Gcc.a(zdo.o)
 .text.zdoDefaultBindApsDataConf
                0x0000d9be        0x8 ./../../../../BitCloud/lib/libBc_All_Sec_Atmega1281_Rf212_Gcc.a(zdo.o)
 .text.confirmMgmtLqiResponse
                0x0000d9c6        0x8 ./../../../../BitCloud/lib/libBc_All_Sec_Atmega1281_Rf212_Gcc.a(zdo.o)
 .text.permitJoiningConf
                0x0000d9ce       0x16 ./../../../../BitCloud/lib/libBc_All_Sec_Atmega1281_Rf212_Gcc.a(zdo.o)
 .text.confirmMgmtPermitJoiningResponse
                0x0000d9e4        0x8 ./../../../../BitCloud/lib/libBc_All_Sec_Atmega1281_Rf212_Gcc.a(zdo.o)
 .text.zdoZdpApsConfCallback
                0x0000d9ec       0x7e ./../../../../BitCloud/lib/libBc_All_Sec_Atmega1281_Rf212_Gcc.a(zdo.o)
 .text.zdoSetZdpIndState
                0x0000da6a       0x10 ./../../../../BitCloud/lib/libBc_All_Sec_Atmega1281_Rf212_Gcc.a(zdo.o)
 .text.ttlUpdateTimerFired
                0x0000da7a       0x72 ./../../../../BitCloud/lib/libBc_All_Sec_Atmega1281_Rf212_Gcc.a(zdo.o)
 .text.zdoSetOutOfNetworkFlag
                0x0000daec       0x36 ./../../../../BitCloud/lib/libBc_All_Sec_Atmega1281_Rf212_Gcc.a(zdo.o)
 .text.zdoStartNetworkConfirm
                0x0000db22       0x24 ./../../../../BitCloud/lib/libBc_All_Sec_Atmega1281_Rf212_Gcc.a(zdo.o)
 .text.reenterNetwork
                0x0000db46       0x30 ./../../../../BitCloud/lib/libBc_All_Sec_Atmega1281_Rf212_Gcc.a(zdo.o)
 .text.joinNetwork
                0x0000db76       0x86 ./../../../../BitCloud/lib/libBc_All_Sec_Atmega1281_Rf212_Gcc.a(zdo.o)
 .text.zdoRejoinNetwork
                0x0000dbfc       0x1c ./../../../../BitCloud/lib/libBc_All_Sec_Atmega1281_Rf212_Gcc.a(zdo.o)
 .text.zdoIntraPanPortApsStopConf
                0x0000dc18       0x1c ./../../../../BitCloud/lib/libBc_All_Sec_Atmega1281_Rf212_Gcc.a(zdo.o)
 .text.joinTimerFired
                0x0000dc34        0x6 ./../../../../BitCloud/lib/libBc_All_Sec_Atmega1281_Rf212_Gcc.a(zdo.o)
 .text.stopSyncTimer
                0x0000dc3a        0xa ./../../../../BitCloud/lib/libBc_All_Sec_Atmega1281_Rf212_Gcc.a(zdo.o)
 .text.startSyncTimer
                0x0000dc44       0x62 ./../../../../BitCloud/lib/libBc_All_Sec_Atmega1281_Rf212_Gcc.a(zdo.o)
 .text.zdoZdpResetReq
                0x0000dca6       0x90 ./../../../../BitCloud/lib/libBc_All_Sec_Atmega1281_Rf212_Gcc.a(zdo.o)
 .text.zdoNetworkFormationReq
                0x0000dd36       0x44 ./../../../../BitCloud/lib/libBc_All_Sec_Atmega1281_Rf212_Gcc.a(zdo.o)
 .text.permitJoin
                0x0000dd7a       0x24 ./../../../../BitCloud/lib/libBc_All_Sec_Atmega1281_Rf212_Gcc.a(zdo.o)
 .text.zdoPseudoRandomSeed
                0x0000dd9e       0x46 ./../../../../BitCloud/lib/libBc_All_Sec_Atmega1281_Rf212_Gcc.a(zdo.o)
 .text.RF_RandomConfUpdater
                0x0000dde4       0x1c ./../../../../BitCloud/lib/libBc_All_Sec_Atmega1281_Rf212_Gcc.a(zdo.o)
 .text.zdoUpdateRandSeedTimerFired
                0x0000de00       0x28 ./../../../../BitCloud/lib/libBc_All_Sec_Atmega1281_Rf212_Gcc.a(zdo.o)
 .text.zdoStackReset
                0x0000de28       0x2a ./../../../../BitCloud/lib/libBc_All_Sec_Atmega1281_Rf212_Gcc.a(zdo.o)
 .text.delayTimerFired
                0x0000de52        0xa ./../../../../BitCloud/lib/libBc_All_Sec_Atmega1281_Rf212_Gcc.a(zdo.o)
 .text.startSystemSleep
                0x0000de5c       0x48 ./../../../../BitCloud/lib/libBc_All_Sec_Atmega1281_Rf212_Gcc.a(zdo.o)
 .text.sendSyncReq
                0x0000dea4       0x30 ./../../../../BitCloud/lib/libBc_All_Sec_Atmega1281_Rf212_Gcc.a(zdo.o)
 .text.transceiverSwitchedOn
                0x0000ded4       0x3a ./../../../../BitCloud/lib/libBc_All_Sec_Atmega1281_Rf212_Gcc.a(zdo.o)
 .text.wakeupCallback
                0x0000df0e       0x4c ./../../../../BitCloud/lib/libBc_All_Sec_Atmega1281_Rf212_Gcc.a(zdo.o)
 .text.zdoPowerManagerHandler
                0x0000df5a       0xf6 ./../../../../BitCloud/lib/libBc_All_Sec_Atmega1281_Rf212_Gcc.a(zdo.o)
 .text.transceiverSwitchedOff
                0x0000e050       0x18 ./../../../../BitCloud/lib/libBc_All_Sec_Atmega1281_Rf212_Gcc.a(zdo.o)
 .text.zdoZdpManagerHandler
                0x0000e068      0x1d6 ./../../../../BitCloud/lib/libBc_All_Sec_Atmega1281_Rf212_Gcc.a(zdo.o)
 .text.zdoNwkEventListener
                0x0000e23e       0x6e ./../../../../BitCloud/lib/libBc_All_Sec_Atmega1281_Rf212_Gcc.a(zdo.o)
 .text.zdoOtherEventListener
                0x0000e2ac       0x34 ./../../../../BitCloud/lib/libBc_All_Sec_Atmega1281_Rf212_Gcc.a(zdo.o)
 .text.zdoExecuteEDScan
                0x0000e2e0       0x36 ./../../../../BitCloud/lib/libBc_All_Sec_Atmega1281_Rf212_Gcc.a(zdo.o)
 .text.confirmMgmtNwkUpdateNotify
                0x0000e316       0x2e ./../../../../BitCloud/lib/libBc_All_Sec_Atmega1281_Rf212_Gcc.a(zdo.o)
 .text.channelChangeTimerFired
                0x0000e344       0x22 ./../../../../BitCloud/lib/libBc_All_Sec_Atmega1281_Rf212_Gcc.a(zdo.o)
 .text.MAC_SetConf
                0x0000e366       0x7e ./../../../../BitCloud/lib/libBc_All_Sec_Atmega1281_Rf212_Gcc.a(zdo.o)
 .text.nwkAddrResp
                0x0000e3e4       0x5e ./../../../../BitCloud/lib/libBc_All_Sec_Atmega1281_Rf212_Gcc.a(zdo.o)
 .text.zdoChildEventListener
                0x0000e442       0xa8 ./../../../../BitCloud/lib/libBc_All_Sec_Atmega1281_Rf212_Gcc.a(zdo.o)
 .text.zdoInitNotifications
                0x0000e4ea       0x6e ./../../../../BitCloud/lib/libBc_All_Sec_Atmega1281_Rf212_Gcc.a(zdo.o)
                0x0000e4ea                zdoInitNotifications
 .text.zdoInitHandler
                0x0000e558      0x122 ./../../../../BitCloud/lib/libBc_All_Sec_Atmega1281_Rf212_Gcc.a(zdo.o)
 .text.ZDO_StartSyncReq
                0x0000e67a       0x30 ./../../../../BitCloud/lib/libBc_All_Sec_Atmega1281_Rf212_Gcc.a(zdo.o)
                0x0000e67a                ZDO_StartSyncReq
 .text.deviceAnnceConf
                0x0000e6aa       0x16 ./../../../../BitCloud/lib/libBc_All_Sec_Atmega1281_Rf212_Gcc.a(zdo.o)
 .text.ZDO_StopSyncReq
                0x0000e6c0       0x18 ./../../../../BitCloud/lib/libBc_All_Sec_Atmega1281_Rf212_Gcc.a(zdo.o)
                0x0000e6c0                ZDO_StopSyncReq
 .text.zdoLeaveNetworkReq
                0x0000e6d8       0x88 ./../../../../BitCloud/lib/libBc_All_Sec_Atmega1281_Rf212_Gcc.a(zdo.o)
 .text.zdoParentChangeConf
                0x0000e760       0x4c ./../../../../BitCloud/lib/libBc_All_Sec_Atmega1281_Rf212_Gcc.a(zdo.o)
 .text.confirmMgmtLeaveResponse
                0x0000e7ac       0xac ./../../../../BitCloud/lib/libBc_All_Sec_Atmega1281_Rf212_Gcc.a(zdo.o)
 .text.startStopSyncReq
                0x0000e858       0x1a ./../../../../BitCloud/lib/libBc_All_Sec_Atmega1281_Rf212_Gcc.a(zdo.o)
 .text.zdoResetSecurityManager
                0x0000e872       0x80 ./../../../../BitCloud/lib/libBc_All_Sec_Atmega1281_Rf212_Gcc.a(zdo.o)
                0x0000e872                zdoResetSecurityManager
 .text.leaveNetworkInd
                0x0000e8f2       0x36 ./../../../../BitCloud/lib/libBc_All_Sec_Atmega1281_Rf212_Gcc.a(zdo.o)
 .text.zdoLeaveNetworkNwkLeaveConf
                0x0000e928        0xe ./../../../../BitCloud/lib/libBc_All_Sec_Atmega1281_Rf212_Gcc.a(zdo.o)
 .text.zdoReset
                0x0000e936       0x1c ./../../../../BitCloud/lib/libBc_All_Sec_Atmega1281_Rf212_Gcc.a(zdo.o)
 .text.zdoLeaveConfirm
                0x0000e952       0x9a ./../../../../BitCloud/lib/libBc_All_Sec_Atmega1281_Rf212_Gcc.a(zdo.o)
 .text.APS_SwitchKeyInd
                0x0000e9ec       0xa4 ./../../../../BitCloud/lib/libBc_All_Sec_Atmega1281_Rf212_Gcc.a(zdo.o)
                0x0000e9ec                APS_SwitchKeyInd
 .text.APS_RemoveDeviceInd
                0x0000ea90      0x112 ./../../../../BitCloud/lib/libBc_All_Sec_Atmega1281_Rf212_Gcc.a(zdo.o)
                0x0000ea90                APS_RemoveDeviceInd
 .text.ZDO_GetPreconfiguredStatus
                0x0000eba2       0x22 ./../../../../BitCloud/lib/libBc_All_Sec_Atmega1281_Rf212_Gcc.a(zdo.o)
                0x0000eba2                ZDO_GetPreconfiguredStatus
 .text.APS_TransportKeyInd
                0x0000ebc4      0x1d8 ./../../../../BitCloud/lib/libBc_All_Sec_Atmega1281_Rf212_Gcc.a(zdo.o)
                0x0000ebc4                APS_TransportKeyInd
 .text.zdoAuthenticateChild
                0x0000ed9c       0x76 ./../../../../BitCloud/lib/libBc_All_Sec_Atmega1281_Rf212_Gcc.a(zdo.o)
                0x0000ed9c                zdoAuthenticateChild
 .text.ZDO_TaskHandler
                0x0000ee12       0x7c ./../../../../BitCloud/lib/libBc_All_Sec_Atmega1281_Rf212_Gcc.a(zdo.o)
                0x0000ee12                ZDO_TaskHandler
 .text.APS_ZdoDataInd
                0x0000ee8e      0x160 ./../../../../BitCloud/lib/libBc_All_Sec_Atmega1281_Rf212_Gcc.a(zdo.o)
                0x0000ee8e                APS_ZdoDataInd
 .text.ZDO_ZdpReq
                0x0000efee       0x64 ./../../../../BitCloud/lib/libBc_All_Sec_Atmega1281_Rf212_Gcc.a(zdo.o)
                0x0000efee                ZDO_ZdpReq
 .text.zdoSendDeviceAnnce
                0x0000f052       0xa2 ./../../../../BitCloud/lib/libBc_All_Sec_Atmega1281_Rf212_Gcc.a(zdo.o)
 .text.APS_StartConf
                0x0000f0f4       0x48 ./../../../../BitCloud/lib/libBc_All_Sec_Atmega1281_Rf212_Gcc.a(zdo.o)
 .text.startAps
                0x0000f13c       0x32 ./../../../../BitCloud/lib/libBc_All_Sec_Atmega1281_Rf212_Gcc.a(zdo.o)
 .text.NWK_StartRouterConf
                0x0000f16e       0x14 ./../../../../BitCloud/lib/libBc_All_Sec_Atmega1281_Rf212_Gcc.a(zdo.o)
 .text.NWK_PermitJoinConf
                0x0000f182       0x62 ./../../../../BitCloud/lib/libBc_All_Sec_Atmega1281_Rf212_Gcc.a(zdo.o)
 .text.zdoAuthenticationConf
                0x0000f1e4       0x3e ./../../../../BitCloud/lib/libBc_All_Sec_Atmega1281_Rf212_Gcc.a(zdo.o)
                0x0000f1e4                zdoAuthenticationConf
 .text.zdoAuthenticationStart
                0x0000f222       0xac ./../../../../BitCloud/lib/libBc_All_Sec_Atmega1281_Rf212_Gcc.a(zdo.o)
                0x0000f222                zdoAuthenticationStart
 .text.zdoSecurityManagerHandler
                0x0000f2ce       0x34 ./../../../../BitCloud/lib/libBc_All_Sec_Atmega1281_Rf212_Gcc.a(zdo.o)
                0x0000f2ce                zdoSecurityManagerHandler
 .text.zdoSendDeviceAnnceConf
                0x0000f302       0x34 ./../../../../BitCloud/lib/libBc_All_Sec_Atmega1281_Rf212_Gcc.a(zdo.o)
 .text.sendNwkUpdateNotify
                0x0000f336       0x3e ./../../../../BitCloud/lib/libBc_All_Sec_Atmega1281_Rf212_Gcc.a(zdo.o)
 .text.zdoZdpFrameProcessorHandler
                0x0000f374     0x1536 ./../../../../BitCloud/lib/libBc_All_Sec_Atmega1281_Rf212_Gcc.a(zdo.o)
 .text.edScanConf
                0x000108aa       0x10 ./../../../../BitCloud/lib/libBc_All_Sec_Atmega1281_Rf212_Gcc.a(zdo.o)
 .text.sendUpdateDeviceCommand
                0x000108ba      0x1c4 ./../../../../BitCloud/lib/libBc_All_Sec_Atmega1281_Rf212_Gcc.a(zdo.o)
 .text.NWK_LeaveInd
                0x00010a7e       0xee ./../../../../BitCloud/lib/libBc_All_Sec_Atmega1281_Rf212_Gcc.a(zdo.o)
                0x00010a7e                NWK_LeaveInd
 .text.NWK_JoinInd
                0x00010b6c      0x104 ./../../../../BitCloud/lib/libBc_All_Sec_Atmega1281_Rf212_Gcc.a(zdo.o)
                0x00010b6c                NWK_JoinInd
 .text.zdoReloadZibFromConfigServer
                0x00010c70      0x1aa ./../../../../BitCloud/lib/libBc_All_Sec_Atmega1281_Rf212_Gcc.a(zdo.o)
                0x00010c70                zdoReloadZibFromConfigServer
 .text.zdoStartNetworkTaskHandler
                0x00010e1a      0x11e ./../../../../BitCloud/lib/libBc_All_Sec_Atmega1281_Rf212_Gcc.a(zdo.o)
 .text.setNetworkParametersToZib
                0x00010f38       0x48 ./../../../../BitCloud/lib/libBc_All_Sec_Atmega1281_Rf212_Gcc.a(zdo.o)
                0x00010f38                setNetworkParametersToZib
 .text.NWK_JoinConf
                0x00010f80       0x5a ./../../../../BitCloud/lib/libBc_All_Sec_Atmega1281_Rf212_Gcc.a(zdo.o)
 .text.NWK_NetworkFormationConf
                0x00010fda       0x18 ./../../../../BitCloud/lib/libBc_All_Sec_Atmega1281_Rf212_Gcc.a(zdo.o)
 .text.zdoStartNetworkStackResetConf
                0x00010ff2      0x128 ./../../../../BitCloud/lib/libBc_All_Sec_Atmega1281_Rf212_Gcc.a(zdo.o)
 .text.zdoPerformIntraPanPortability
                0x0001111a       0x44 ./../../../../BitCloud/lib/libBc_All_Sec_Atmega1281_Rf212_Gcc.a(zdo.o)
                0x0001111a                zdoPerformIntraPanPortability
 .text.NWK_SyncConf
                0x0001115e       0x56 ./../../../../BitCloud/lib/libBc_All_Sec_Atmega1281_Rf212_Gcc.a(zdo.o)
 .text.NWK_NwkStatusInd
                0x000111b4       0xb2 ./../../../../BitCloud/lib/libBc_All_Sec_Atmega1281_Rf212_Gcc.a(zdo.o)
                0x000111b4                NWK_NwkStatusInd
 .text.apsCommandAllocDataConf
                0x00011266       0x3c ./../../../../BitCloud/lib/libBc_All_Sec_Atmega1281_Rf212_Gcc.a(aps.o)
 .text.apsGetApsCounter
                0x000112a2        0xe ./../../../../BitCloud/lib/libBc_All_Sec_Atmega1281_Rf212_Gcc.a(aps.o)
 .text.apsPrepareFragmentedTransmission
                0x000112b0       0x70 ./../../../../BitCloud/lib/libBc_All_Sec_Atmega1281_Rf212_Gcc.a(aps.o)
 .text.apsIsFragmentationDataReq
                0x00011320       0x22 ./../../../../BitCloud/lib/libBc_All_Sec_Atmega1281_Rf212_Gcc.a(aps.o)
 .text.apsGetBuffer
                0x00011342       0xd6 ./../../../../BitCloud/lib/libBc_All_Sec_Atmega1281_Rf212_Gcc.a(aps.o)
 .text.apsFreeBuffer
                0x00011418       0x8e ./../../../../BitCloud/lib/libBc_All_Sec_Atmega1281_Rf212_Gcc.a(aps.o)
 .text.apsSwitchKeyPrepare
                0x000114a6       0x3a ./../../../../BitCloud/lib/libBc_All_Sec_Atmega1281_Rf212_Gcc.a(aps.o)
 .text.apsSwitchKeyConf
                0x000114e0       0x10 ./../../../../BitCloud/lib/libBc_All_Sec_Atmega1281_Rf212_Gcc.a(aps.o)
 .text.apsPostTask
                0x000114f0       0x32 ./../../../../BitCloud/lib/libBc_All_Sec_Atmega1281_Rf212_Gcc.a(aps.o)
 .text.apsMakeApsDataConf
                0x00011522       0x5a ./../../../../BitCloud/lib/libBc_All_Sec_Atmega1281_Rf212_Gcc.a(aps.o)
 .text.apsConfirmUpdateDeviceCommand
                0x0001157c       0x10 ./../../../../BitCloud/lib/libBc_All_Sec_Atmega1281_Rf212_Gcc.a(aps.o)
 .text.apsSetCommandReqToDefault
                0x0001158c       0x1e ./../../../../BitCloud/lib/libBc_All_Sec_Atmega1281_Rf212_Gcc.a(aps.o)
 .text.apsCommandReq
                0x000115aa       0x12 ./../../../../BitCloud/lib/libBc_All_Sec_Atmega1281_Rf212_Gcc.a(aps.o)
 .text.apsConfirmTransportKeyCommand
                0x000115bc       0x1a ./../../../../BitCloud/lib/libBc_All_Sec_Atmega1281_Rf212_Gcc.a(aps.o)
 .text.apsDataManagerNwkDataConf
                0x000115d6       0x1c ./../../../../BitCloud/lib/libBc_All_Sec_Atmega1281_Rf212_Gcc.a(aps.o)
 .text.apsProcessEvent
                0x000115f2       0x26 ./../../../../BitCloud/lib/libBc_All_Sec_Atmega1281_Rf212_Gcc.a(aps.o)
 .text.apsPrepareUpdateDeviceCommand
                0x00011618       0x54 ./../../../../BitCloud/lib/libBc_All_Sec_Atmega1281_Rf212_Gcc.a(aps.o)
 .text.apsRemoveDevicePrepare
                0x0001166c       0x44 ./../../../../BitCloud/lib/libBc_All_Sec_Atmega1281_Rf212_Gcc.a(aps.o)
 .text.apsTransportKeyTaskHandler
                0x000116b0       0x78 ./../../../../BitCloud/lib/libBc_All_Sec_Atmega1281_Rf212_Gcc.a(aps.o)
 .text.apsStopConf
                0x00011728       0x4a ./../../../../BitCloud/lib/libBc_All_Sec_Atmega1281_Rf212_Gcc.a(aps.o)
 .text.apsTransportNwkKeyCommand
                0x00011772       0x78 ./../../../../BitCloud/lib/libBc_All_Sec_Atmega1281_Rf212_Gcc.a(aps.o)
 .text.apsPrepareTransportNwkKeyCommand
                0x000117ea      0x12a ./../../../../BitCloud/lib/libBc_All_Sec_Atmega1281_Rf212_Gcc.a(aps.o)
 .text.apsNextBind
                0x00011914       0xb0 ./../../../../BitCloud/lib/libBc_All_Sec_Atmega1281_Rf212_Gcc.a(aps.o)
 .text.apsFindBindingEntry
                0x000119c4       0xc6 ./../../../../BitCloud/lib/libBc_All_Sec_Atmega1281_Rf212_Gcc.a(aps.o)
 .text.apsCommandNwkDataReq
                0x00011a8a       0x68 ./../../../../BitCloud/lib/libBc_All_Sec_Atmega1281_Rf212_Gcc.a(aps.o)
 .text.apsPrepareTunnelCommand
                0x00011af2       0x76 ./../../../../BitCloud/lib/libBc_All_Sec_Atmega1281_Rf212_Gcc.a(aps.o)
 .text.apsSendNwkDataReq
                0x00011b68       0x10 ./../../../../BitCloud/lib/libBc_All_Sec_Atmega1281_Rf212_Gcc.a(aps.o)
 .text.apsProcessShortAddrModeDataReq
                0x00011b78      0x296 ./../../../../BitCloud/lib/libBc_All_Sec_Atmega1281_Rf212_Gcc.a(aps.o)
 .text.apsSendNextBlock
                0x00011e0e       0x14 ./../../../../BitCloud/lib/libBc_All_Sec_Atmega1281_Rf212_Gcc.a(aps.o)
 .text.apsSendAckForFragmentedReceive
                0x00011e22       0xc8 ./../../../../BitCloud/lib/libBc_All_Sec_Atmega1281_Rf212_Gcc.a(aps.o)
 .text.apsCommandNwkDataConf
                0x00011eea       0x2c ./../../../../BitCloud/lib/libBc_All_Sec_Atmega1281_Rf212_Gcc.a(aps.o)
 .text.apsFindShortByExt
                0x00011f16       0xee ./../../../../BitCloud/lib/libBc_All_Sec_Atmega1281_Rf212_Gcc.a(aps.o)
 .text.apsCommandReqTaskHandler
                0x00012004       0x60 ./../../../../BitCloud/lib/libBc_All_Sec_Atmega1281_Rf212_Gcc.a(aps.o)
 .text.apsAckForFragmentedReceiveConfirmHandler
                0x00012064       0x9e ./../../../../BitCloud/lib/libBc_All_Sec_Atmega1281_Rf212_Gcc.a(aps.o)
 .text.apsProcessGroupAddrModeDataReq
                0x00012102      0x1ae ./../../../../BitCloud/lib/libBc_All_Sec_Atmega1281_Rf212_Gcc.a(aps.o)
 .text.apsSendToNextBoundDevice
                0x000122b0       0x9c ./../../../../BitCloud/lib/libBc_All_Sec_Atmega1281_Rf212_Gcc.a(aps.o)
 .text.apsProcessIndirectDataReq
                0x0001234c       0x2c ./../../../../BitCloud/lib/libBc_All_Sec_Atmega1281_Rf212_Gcc.a(aps.o)
 .text.apsCalculateApsAckTimeout
                0x00012378       0x56 ./../../../../BitCloud/lib/libBc_All_Sec_Atmega1281_Rf212_Gcc.a(aps.o)
 .text.apsGroupNwkDataConf
                0x000123ce       0x4a ./../../../../BitCloud/lib/libBc_All_Sec_Atmega1281_Rf212_Gcc.a(aps.o)
 .text.SYS_GetRandomNumber
                0x00012418       0x2a ./../../../../BitCloud/lib/libBc_All_Sec_Atmega1281_Rf212_Gcc.a(aps.o)
 .text.apsFindExtByShort
                0x00012442       0x26 ./../../../../BitCloud/lib/libBc_All_Sec_Atmega1281_Rf212_Gcc.a(aps.o)
 .text.apsSendNwkKeyToChildConf
                0x00012468       0x4a ./../../../../BitCloud/lib/libBc_All_Sec_Atmega1281_Rf212_Gcc.a(aps.o)
 .text.apsSwitchKeyInd
                0x000124b2       0x62 ./../../../../BitCloud/lib/libBc_All_Sec_Atmega1281_Rf212_Gcc.a(aps.o)
 .text.apsRemoveDeviceInd
                0x00012514       0x94 ./../../../../BitCloud/lib/libBc_All_Sec_Atmega1281_Rf212_Gcc.a(aps.o)
 .text.apsUpdateDeviceInd
                0x000125a8       0xac ./../../../../BitCloud/lib/libBc_All_Sec_Atmega1281_Rf212_Gcc.a(aps.o)
 .text.apsResetMemoryManager
                0x00012654       0xfa ./../../../../BitCloud/lib/libBc_All_Sec_Atmega1281_Rf212_Gcc.a(aps.o)
 .text.apsAckOnTimerFired
                0x0001274e       0xf8 ./../../../../BitCloud/lib/libBc_All_Sec_Atmega1281_Rf212_Gcc.a(aps.o)
 .text.apsRemoveDeviceConf
                0x00012846       0x58 ./../../../../BitCloud/lib/libBc_All_Sec_Atmega1281_Rf212_Gcc.a(aps.o)
 .text.apsForwardKeyToChild.clone.9.clone.10
                0x0001289e       0xc4 ./../../../../BitCloud/lib/libBc_All_Sec_Atmega1281_Rf212_Gcc.a(aps.o)
 .text.apsTransportKeyInd
                0x00012962      0x142 ./../../../../BitCloud/lib/libBc_All_Sec_Atmega1281_Rf212_Gcc.a(aps.o)
 .text.apsTunnelInd
                0x00012aa4       0x9a ./../../../../BitCloud/lib/libBc_All_Sec_Atmega1281_Rf212_Gcc.a(aps.o)
 .text.apsConstructAndSendAck.clone.12
                0x00012b3e      0x200 ./../../../../BitCloud/lib/libBc_All_Sec_Atmega1281_Rf212_Gcc.a(aps.o)
 .text.apsHandleTransmittedData.clone.16
                0x00012d3e       0x6e ./../../../../BitCloud/lib/libBc_All_Sec_Atmega1281_Rf212_Gcc.a(aps.o)
 .text.APS_BindReq
                0x00012dac       0xa6 ./../../../../BitCloud/lib/libBc_All_Sec_Atmega1281_Rf212_Gcc.a(aps.o)
                0x00012dac                APS_BindReq
 .text.APS_UnbindReq
                0x00012e52       0x4a ./../../../../BitCloud/lib/libBc_All_Sec_Atmega1281_Rf212_Gcc.a(aps.o)
                0x00012e52                APS_UnbindReq
 .text.APS_DataReq
                0x00012e9c       0x12 ./../../../../BitCloud/lib/libBc_All_Sec_Atmega1281_Rf212_Gcc.a(aps.o)
                0x00012e9c                APS_DataReq
 .text.NWK_DataInd
                0x00012eae       0x12 ./../../../../BitCloud/lib/libBc_All_Sec_Atmega1281_Rf212_Gcc.a(aps.o)
                0x00012eae                NWK_DataInd
 .text.APS_CalculateTimes
                0x00012ec0      0x1b2 ./../../../../BitCloud/lib/libBc_All_Sec_Atmega1281_Rf212_Gcc.a(aps.o)
                0x00012ec0                APS_CalculateTimes
 .text.apsResetDataManager
                0x00013072      0x110 ./../../../../BitCloud/lib/libBc_All_Sec_Atmega1281_Rf212_Gcc.a(aps.o)
 .text.apsNwkResetConf
                0x00013182      0x1b4 ./../../../../BitCloud/lib/libBc_All_Sec_Atmega1281_Rf212_Gcc.a(aps.o)
 .text.apsStateMachineTaskHandler
                0x00013336       0xee ./../../../../BitCloud/lib/libBc_All_Sec_Atmega1281_Rf212_Gcc.a(aps.o)
 .text.APS_IsProfileIdMatched
                0x00013424       0x22 ./../../../../BitCloud/lib/libBc_All_Sec_Atmega1281_Rf212_Gcc.a(aps.o)
                0x00013424                APS_IsProfileIdMatched
 .text.APS_NextEndpoint
                0x00013446       0x16 ./../../../../BitCloud/lib/libBc_All_Sec_Atmega1281_Rf212_Gcc.a(aps.o)
                0x00013446                APS_NextEndpoint
 .text.apsFindEndpoint
                0x0001345c       0x26 ./../../../../BitCloud/lib/libBc_All_Sec_Atmega1281_Rf212_Gcc.a(aps.o)
 .text.apsGroupIndication
                0x00013482       0x8a ./../../../../BitCloud/lib/libBc_All_Sec_Atmega1281_Rf212_Gcc.a(aps.o)
 .text.apsUnicastDataInd
                0x0001350c      0x2a2 ./../../../../BitCloud/lib/libBc_All_Sec_Atmega1281_Rf212_Gcc.a(aps.o)
 .text.apsApduUnicastHandler.clone.14
                0x000137ae      0x3dc ./../../../../BitCloud/lib/libBc_All_Sec_Atmega1281_Rf212_Gcc.a(aps.o)
 .text.apsDataTaskHandler
                0x00013b8a      0xbea ./../../../../BitCloud/lib/libBc_All_Sec_Atmega1281_Rf212_Gcc.a(aps.o)
 .text.APS_RemoveDeviceReq
                0x00014774       0x42 ./../../../../BitCloud/lib/libBc_All_Sec_Atmega1281_Rf212_Gcc.a(aps.o)
                0x00014774                APS_RemoveDeviceReq
 .text.APS_Init
                0x000147b6       0x2e ./../../../../BitCloud/lib/libBc_All_Sec_Atmega1281_Rf212_Gcc.a(aps.o)
                0x000147b6                APS_Init
 .text.APS_ResetReq
                0x000147e4        0xc ./../../../../BitCloud/lib/libBc_All_Sec_Atmega1281_Rf212_Gcc.a(aps.o)
                0x000147e4                APS_ResetReq
 .text.APS_StartReq
                0x000147f0        0xc ./../../../../BitCloud/lib/libBc_All_Sec_Atmega1281_Rf212_Gcc.a(aps.o)
                0x000147f0                APS_StartReq
 .text.APS_StopReq
                0x000147fc        0xc ./../../../../BitCloud/lib/libBc_All_Sec_Atmega1281_Rf212_Gcc.a(aps.o)
                0x000147fc                APS_StopReq
 .text.APS_IsActiveTransaction
                0x00014808       0x54 ./../../../../BitCloud/lib/libBc_All_Sec_Atmega1281_Rf212_Gcc.a(aps.o)
                0x00014808                APS_IsActiveTransaction
 .text.APS_SwitchKeyReq
                0x0001485c       0x42 ./../../../../BitCloud/lib/libBc_All_Sec_Atmega1281_Rf212_Gcc.a(aps.o)
                0x0001485c                APS_SwitchKeyReq
 .text.APS_TaskHandler
                0x0001489e       0x9c ./../../../../BitCloud/lib/libBc_All_Sec_Atmega1281_Rf212_Gcc.a(aps.o)
                0x0001489e                APS_TaskHandler
 .text.APS_TransportKeyReq
                0x0001493a       0x1e ./../../../../BitCloud/lib/libBc_All_Sec_Atmega1281_Rf212_Gcc.a(aps.o)
                0x0001493a                APS_TransportKeyReq
 .text.APS_UpdateDeviceReq
                0x00014958       0x42 ./../../../../BitCloud/lib/libBc_All_Sec_Atmega1281_Rf212_Gcc.a(aps.o)
                0x00014958                APS_UpdateDeviceReq
 .text.SYS_Sleep
                0x0001499a        0x6 ./../../../../BitCloud/lib/libBc_All_Sec_Atmega1281_Rf212_Gcc.a(bcSysSleep.o)
                0x0001499a                SYS_Sleep
 .text.getSymbolsPerOctet
                0x000149a0       0x3c ./../../../../BitCloud/lib/libBc_All_Sec_Atmega1281_Rf212_Gcc.a(macenvPib.o)
 .text.calculateMaxFrameDuration
                0x000149dc       0x22 ./../../../../BitCloud/lib/libBc_All_Sec_Atmega1281_Rf212_Gcc.a(macenvPib.o)
 .text.storeTransmitPower
                0x000149fe       0x14 ./../../../../BitCloud/lib/libBc_All_Sec_Atmega1281_Rf212_Gcc.a(macenvPib.o)
 .text.SYS_GetRandomNumber
                0x00014a12       0x2a ./../../../../BitCloud/lib/libBc_All_Sec_Atmega1281_Rf212_Gcc.a(macenvPib.o)
 .text.macenvGetPhySymbolDuration
                0x00014a3c       0x4a ./../../../../BitCloud/lib/libBc_All_Sec_Atmega1281_Rf212_Gcc.a(macenvPib.o)
                0x00014a3c                macenvGetPhySymbolDuration
 .text.updateMaxFrameTxTime
                0x00014a86       0x3a ./../../../../BitCloud/lib/libBc_All_Sec_Atmega1281_Rf212_Gcc.a(macenvPib.o)
 .text.macenvResetPib
                0x00014ac0       0xfc ./../../../../BitCloud/lib/libBc_All_Sec_Atmega1281_Rf212_Gcc.a(macenvPib.o)
                0x00014ac0                macenvResetPib
 .text.macenvConvertTransPersistTimeFromUnitsToMs
                0x00014bbc       0x48 ./../../../../BitCloud/lib/libBc_All_Sec_Atmega1281_Rf212_Gcc.a(macenvPib.o)
                0x00014bbc                macenvConvertTransPersistTimeFromUnitsToMs
 .text.macenvSetPibAttr
                0x00014c04      0x2a0 ./../../../../BitCloud/lib/libBc_All_Sec_Atmega1281_Rf212_Gcc.a(macenvPib.o)
                0x00014c04                macenvSetPibAttr
 .text.macenvCalculateMaxFrameTotalWaitTimeInMs
                0x00014ea4      0x128 ./../../../../BitCloud/lib/libBc_All_Sec_Atmega1281_Rf212_Gcc.a(macenvPib.o)
                0x00014ea4                macenvCalculateMaxFrameTotalWaitTimeInMs
 .text.macenvCalculateResponceWaitTimeInMs
                0x00014fcc       0x42 ./../../../../BitCloud/lib/libBc_All_Sec_Atmega1281_Rf212_Gcc.a(macenvPib.o)
                0x00014fcc                macenvCalculateResponceWaitTimeInMs
 .text.macenvGetPibAttr
                0x0001500e      0x216 ./../../../../BitCloud/lib/libBc_All_Sec_Atmega1281_Rf212_Gcc.a(macenvPib.o)
                0x0001500e                macenvGetPibAttr
 .text.MAC_GetExtAddr
                0x00015224        0x6 ./../../../../BitCloud/lib/libBc_All_Sec_Atmega1281_Rf212_Gcc.a(macenvPib.o)
                0x00015224                MAC_GetExtAddr
 .text.MAC_SetExtAddr
                0x0001522a       0x34 ./../../../../BitCloud/lib/libBc_All_Sec_Atmega1281_Rf212_Gcc.a(macenvPib.o)
                0x0001522a                MAC_SetExtAddr
 .text.MAC_IsOwnExtAddr
                0x0001525e       0x1c ./../../../../BitCloud/lib/libBc_All_Sec_Atmega1281_Rf212_Gcc.a(macenvPib.o)
                0x0001525e                MAC_IsOwnExtAddr
 .text.MAC_GetOctetsTransmissionTimeInMs
                0x0001527a       0x5e ./../../../../BitCloud/lib/libBc_All_Sec_Atmega1281_Rf212_Gcc.a(macenvPib.o)
                0x0001527a                MAC_GetOctetsTransmissionTimeInMs
 .text.postNewMacRequest
                0x000152d8       0x2a ./../../../../BitCloud/lib/libBc_All_Sec_Atmega1281_Rf212_Gcc.a(machwdManager.o)
 .text.machwdInitiateNextRequestProcessing
                0x00015302       0x16 ./../../../../BitCloud/lib/libBc_All_Sec_Atmega1281_Rf212_Gcc.a(machwdManager.o)
 .text.putReqInQueue
                0x00015318       0x18 ./../../../../BitCloud/lib/libBc_All_Sec_Atmega1281_Rf212_Gcc.a(machwdManager.o)
 .text.MACHWD_DataReq
                0x00015330        0xa ./../../../../BitCloud/lib/libBc_All_Sec_Atmega1281_Rf212_Gcc.a(machwdManager.o)
                0x00015330                MACHWD_DataReq
 .text.MACHWD_SetTrxStateReq
                0x0001533a        0xc ./../../../../BitCloud/lib/libBc_All_Sec_Atmega1281_Rf212_Gcc.a(machwdManager.o)
                0x0001533a                MACHWD_SetTrxStateReq
 .text.MACHWD_SetReq
                0x00015346        0xc ./../../../../BitCloud/lib/libBc_All_Sec_Atmega1281_Rf212_Gcc.a(machwdManager.o)
                0x00015346                MACHWD_SetReq
 .text.MACHWD_EdReq
                0x00015352        0xc ./../../../../BitCloud/lib/libBc_All_Sec_Atmega1281_Rf212_Gcc.a(machwdManager.o)
                0x00015352                MACHWD_EdReq
 .text.RF_EncryptReq
                0x0001535e        0xc ./../../../../BitCloud/lib/libBc_All_Sec_Atmega1281_Rf212_Gcc.a(machwdManager.o)
                0x0001535e                RF_EncryptReq
 .text.RF_RandomReq
                0x0001536a       0x14 ./../../../../BitCloud/lib/libBc_All_Sec_Atmega1281_Rf212_Gcc.a(machwdManager.o)
                0x0001536a                RF_RandomReq
 .text.MACHWD_Reset
                0x0001537e       0x42 ./../../../../BitCloud/lib/libBc_All_Sec_Atmega1281_Rf212_Gcc.a(machwdManager.o)
                0x0001537e                MACHWD_Reset
 .text.MAC_PHY_HWD_TaskHandler
                0x000153c0      0x118 ./../../../../BitCloud/lib/libBc_All_Sec_Atmega1281_Rf212_Gcc.a(machwdManager.o)
                0x000153c0                MAC_PHY_HWD_TaskHandler
 .text.machwdSendConf2UpperLayer
                0x000154d8       0x6c ./../../../../BitCloud/lib/libBc_All_Sec_Atmega1281_Rf212_Gcc.a(machwdManager.o)
                0x000154d8                machwdSendConf2UpperLayer
 .text.machwdSendDataInd2UpperLayer
                0x00015544        0x6 ./../../../../BitCloud/lib/libBc_All_Sec_Atmega1281_Rf212_Gcc.a(machwdManager.o)
                0x00015544                machwdSendDataInd2UpperLayer
 .text.machwdRegAccessReqHandler
                0x0001554a       0x30 ./../../../../BitCloud/lib/libBc_All_Sec_Atmega1281_Rf212_Gcc.a(machwdRegAccessHandler.o)
                0x0001554a                machwdRegAccessReqHandler
 .text.machwdReset
                0x0001557a       0xb6 ./../../../../BitCloud/lib/libBc_All_Sec_Atmega1281_Rf212_Gcc.a(machwdResetHandler.o)
                0x0001557a                machwdReset
 .text.machwdRndReqHandler
                0x00015630        0xe ./../../../../BitCloud/lib/libBc_All_Sec_Atmega1281_Rf212_Gcc.a(machwdRndHandler.o)
                0x00015630                machwdRndReqHandler
 .text.machwdResetRxBuffer
                0x0001563e       0x62 ./../../../../BitCloud/lib/libBc_All_Sec_Atmega1281_Rf212_Gcc.a(machwdRxBuffer.o)
                0x0001563e                machwdResetRxBuffer
 .text.machwdNextBuffer
                0x000156a0       0x10 ./../../../../BitCloud/lib/libBc_All_Sec_Atmega1281_Rf212_Gcc.a(machwdRxBuffer.o)
                0x000156a0                machwdNextBuffer
 .text.machwdReleaseBuffer
                0x000156b0       0x62 ./../../../../BitCloud/lib/libBc_All_Sec_Atmega1281_Rf212_Gcc.a(machwdRxBuffer.o)
                0x000156b0                machwdReleaseBuffer
 .text.machwdNextBufferPresent
                0x00015712       0x26 ./../../../../BitCloud/lib/libBc_All_Sec_Atmega1281_Rf212_Gcc.a(machwdRxBuffer.o)
                0x00015712                machwdNextBufferPresent
 .text.machwdRxFrameTaskHandler
                0x00015738       0x28 ./../../../../BitCloud/lib/libBc_All_Sec_Atmega1281_Rf212_Gcc.a(machwdRxFrameHandler.o)
                0x00015738                machwdRxFrameTaskHandler
 .text.machwdRxFrameIndTaskHandler
                0x00015760       0x84 ./../../../../BitCloud/lib/libBc_All_Sec_Atmega1281_Rf212_Gcc.a(machwdRxFrameHandler.o)
                0x00015760                machwdRxFrameIndTaskHandler
 .text.machwdSetReqHandler
                0x000157e4       0x94 ./../../../../BitCloud/lib/libBc_All_Sec_Atmega1281_Rf212_Gcc.a(machwdSetHandler.o)
                0x000157e4                machwdSetReqHandler
 .text.machwdResetSetHandler
                0x00015878        0x6 ./../../../../BitCloud/lib/libBc_All_Sec_Atmega1281_Rf212_Gcc.a(machwdSetHandler.o)
                0x00015878                machwdResetSetHandler
 .text.machwdGetPhyTrxCmd
                0x0001587e       0x14 ./../../../../BitCloud/lib/libBc_All_Sec_Atmega1281_Rf212_Gcc.a(machwdTrxCtrl.o)
                0x0001587e                machwdGetPhyTrxCmd
 .text.machwdConvertTrxCmdToTrxState
                0x00015892       0x14 ./../../../../BitCloud/lib/libBc_All_Sec_Atmega1281_Rf212_Gcc.a(machwdTrxCtrl.o)
                0x00015892                machwdConvertTrxCmdToTrxState
 .text.machwdConvertTrxStateToTrxCmd
                0x000158a6       0x16 ./../../../../BitCloud/lib/libBc_All_Sec_Atmega1281_Rf212_Gcc.a(machwdTrxCtrl.o)
                0x000158a6                machwdConvertTrxStateToTrxCmd
 .text.machwdTrxReqHandler
                0x000158bc       0x40 ./../../../../BitCloud/lib/libBc_All_Sec_Atmega1281_Rf212_Gcc.a(machwdTrxHandler.o)
                0x000158bc                machwdTrxReqHandler
 .text.executePhyDataReq
                0x000158fc       0x2a ./../../../../BitCloud/lib/libBc_All_Sec_Atmega1281_Rf212_Gcc.a(machwdTxFrameHandler.o)
 .text.machwdTxFrameReqHandler
                0x00015926       0x36 ./../../../../BitCloud/lib/libBc_All_Sec_Atmega1281_Rf212_Gcc.a(machwdTxFrameHandler.o)
                0x00015926                machwdTxFrameReqHandler
 .text.machwdTxFrameTaskHandler
                0x0001595c       0x26 ./../../../../BitCloud/lib/libBc_All_Sec_Atmega1281_Rf212_Gcc.a(machwdTxFrameHandler.o)
                0x0001595c                machwdTxFrameTaskHandler
 .text.machwdResetTxFrameHandler
                0x00015982        0x2 ./../../../../BitCloud/lib/libBc_All_Sec_Atmega1281_Rf212_Gcc.a(machwdTxFrameHandler.o)
                0x00015982                machwdResetTxFrameHandler
 .text.postponeAction
                0x00015984       0x2c ./../../../../BitCloud/lib/libBc_All_Sec_Atmega1281_Rf212_Gcc.a(machwiManager.o)
 .text.putReqInQueue
                0x000159b0       0x2c ./../../../../BitCloud/lib/libBc_All_Sec_Atmega1281_Rf212_Gcc.a(machwiManager.o)
 .text.machwiSendConfToUpperLayer
                0x000159dc       0xf2 ./../../../../BitCloud/lib/libBc_All_Sec_Atmega1281_Rf212_Gcc.a(machwiManager.o)
                0x000159dc                machwiSendConfToUpperLayer
 .text.MAC_HWI_TaskHandler
                0x00015ace       0xd8 ./../../../../BitCloud/lib/libBc_All_Sec_Atmega1281_Rf212_Gcc.a(machwiManager.o)
                0x00015ace                MAC_HWI_TaskHandler
 .text.MAC_AssociateReq
                0x00015ba6        0xc ./../../../../BitCloud/lib/libBc_All_Sec_Atmega1281_Rf212_Gcc.a(machwiManager.o)
                0x00015ba6                MAC_AssociateReq
 .text.MAC_AssociateResp
                0x00015bb2        0xc ./../../../../BitCloud/lib/libBc_All_Sec_Atmega1281_Rf212_Gcc.a(machwiManager.o)
                0x00015bb2                MAC_AssociateResp
 .text.MAC_GetReq
                0x00015bbe        0xc ./../../../../BitCloud/lib/libBc_All_Sec_Atmega1281_Rf212_Gcc.a(machwiManager.o)
                0x00015bbe                MAC_GetReq
 .text.MAC_ResetReq
                0x00015bca       0x58 ./../../../../BitCloud/lib/libBc_All_Sec_Atmega1281_Rf212_Gcc.a(machwiManager.o)
                0x00015bca                MAC_ResetReq
 .text.MAC_RxEnableReq
                0x00015c22        0xc ./../../../../BitCloud/lib/libBc_All_Sec_Atmega1281_Rf212_Gcc.a(machwiManager.o)
                0x00015c22                MAC_RxEnableReq
 .text.MAC_ScanReq
                0x00015c2e        0xc ./../../../../BitCloud/lib/libBc_All_Sec_Atmega1281_Rf212_Gcc.a(machwiManager.o)
                0x00015c2e                MAC_ScanReq
 .text.MAC_SetReq
                0x00015c3a        0xc ./../../../../BitCloud/lib/libBc_All_Sec_Atmega1281_Rf212_Gcc.a(machwiManager.o)
                0x00015c3a                MAC_SetReq
 .text.MAC_StartReq
                0x00015c46        0xc ./../../../../BitCloud/lib/libBc_All_Sec_Atmega1281_Rf212_Gcc.a(machwiManager.o)
                0x00015c46                MAC_StartReq
 .text.MAC_PollReq
                0x00015c52        0xc ./../../../../BitCloud/lib/libBc_All_Sec_Atmega1281_Rf212_Gcc.a(machwiManager.o)
                0x00015c52                MAC_PollReq
 .text.MAC_DataReq
                0x00015c5e        0xc ./../../../../BitCloud/lib/libBc_All_Sec_Atmega1281_Rf212_Gcc.a(machwiManager.o)
                0x00015c5e                MAC_DataReq
 .text.machwiSendAssociateInd
                0x00015c6a        0xe ./../../../../BitCloud/lib/libBc_All_Sec_Atmega1281_Rf212_Gcc.a(machwiManager.o)
                0x00015c6a                machwiSendAssociateInd
 .text.machwiSendDataInd
                0x00015c78        0xe ./../../../../BitCloud/lib/libBc_All_Sec_Atmega1281_Rf212_Gcc.a(machwiManager.o)
                0x00015c78                machwiSendDataInd
 .text.machwiSendBeaconNotifyInd
                0x00015c86        0xe ./../../../../BitCloud/lib/libBc_All_Sec_Atmega1281_Rf212_Gcc.a(machwiManager.o)
                0x00015c86                machwiSendBeaconNotifyInd
 .text.machwiSendSyncLossNotifyInd
                0x00015c94        0xe ./../../../../BitCloud/lib/libBc_All_Sec_Atmega1281_Rf212_Gcc.a(machwiManager.o)
                0x00015c94                machwiSendSyncLossNotifyInd
 .text.machwiSendOrphanInd
                0x00015ca2        0xe ./../../../../BitCloud/lib/libBc_All_Sec_Atmega1281_Rf212_Gcc.a(machwiManager.o)
                0x00015ca2                machwiSendOrphanInd
 .text.machwiSendPollInd
                0x00015cb0        0xe ./../../../../BitCloud/lib/libBc_All_Sec_Atmega1281_Rf212_Gcc.a(machwiManager.o)
                0x00015cb0                machwiSendPollInd
 .text.machwiTxTransactionReq
                0x00015cbe        0x8 ./../../../../BitCloud/lib/libBc_All_Sec_Atmega1281_Rf212_Gcc.a(machwiManager.o)
                0x00015cbe                machwiTxTransactionReq
 .text.machwiTxBeaconReq
                0x00015cc6        0x8 ./../../../../BitCloud/lib/libBc_All_Sec_Atmega1281_Rf212_Gcc.a(machwiManager.o)
                0x00015cc6                machwiTxBeaconReq
 .text.MAC_IsActiveTransaction
                0x00015cce       0x18 ./../../../../BitCloud/lib/libBc_All_Sec_Atmega1281_Rf212_Gcc.a(machwiManager.o)
                0x00015cce                MAC_IsActiveTransaction
 .text.machwdDataConfirm
                0x00015ce6       0x22 ./../../../../BitCloud/lib/libBc_All_Sec_Atmega1281_Rf212_Gcc.a(machwiOrphanHandler.o)
 .text.machwiOrphanRespHandler
                0x00015d08      0x18e ./../../../../BitCloud/lib/libBc_All_Sec_Atmega1281_Rf212_Gcc.a(machwiOrphanHandler.o)
                0x00015d08                machwiOrphanRespHandler
 .text.machwiOrphanNotificationInd
                0x00015e96       0x44 ./../../../../BitCloud/lib/libBc_All_Sec_Atmega1281_Rf212_Gcc.a(machwiOrphanHandler.o)
                0x00015e96                machwiOrphanNotificationInd
 .text.MACHWD_DataInd
                0x00015eda       0x6a ./../../../../BitCloud/lib/libBc_All_Sec_Atmega1281_Rf212_Gcc.a(machwiPanServer.o)
                0x00015eda                MACHWD_DataInd
 .text.machwiEnableBeaconTransmission
                0x00015f44        0x8 ./../../../../BitCloud/lib/libBc_All_Sec_Atmega1281_Rf212_Gcc.a(machwiPanServer.o)
                0x00015f44                machwiEnableBeaconTransmission
 .text.machwiResetPanServer
                0x00015f4c        0x6 ./../../../../BitCloud/lib/libBc_All_Sec_Atmega1281_Rf212_Gcc.a(machwiPanServer.o)
                0x00015f4c                machwiResetPanServer
 .text.switchingCompleted
                0x00015f52       0x12 ./../../../../BitCloud/lib/libBc_All_Sec_Atmega1281_Rf212_Gcc.a(machwiPollHandler.o)
 .text.completeHandling
                0x00015f64       0x18 ./../../../../BitCloud/lib/libBc_All_Sec_Atmega1281_Rf212_Gcc.a(machwiPollHandler.o)
 .text.machwdDataConfirm
                0x00015f7c       0x6a ./../../../../BitCloud/lib/libBc_All_Sec_Atmega1281_Rf212_Gcc.a(machwiPollHandler.o)
 .text.halPollTimerFired
                0x00015fe6        0x6 ./../../../../BitCloud/lib/libBc_All_Sec_Atmega1281_Rf212_Gcc.a(machwiPollHandler.o)
 .text.machwiResetPollHandler
                0x00015fec        0x6 ./../../../../BitCloud/lib/libBc_All_Sec_Atmega1281_Rf212_Gcc.a(machwiPollHandler.o)
                0x00015fec                machwiResetPollHandler
 .text.machwiPollInd
                0x00015ff2       0x5a ./../../../../BitCloud/lib/libBc_All_Sec_Atmega1281_Rf212_Gcc.a(machwiPollHandler.o)
                0x00015ff2                machwiPollInd
 .text.machwiDataIndication
                0x0001604c      0x1cc ./../../../../BitCloud/lib/libBc_All_Sec_Atmega1281_Rf212_Gcc.a(machwiPollHandler.o)
                0x0001604c                machwiDataIndication
 .text.machwiPollReqHandler
                0x00016218      0x15c ./../../../../BitCloud/lib/libBc_All_Sec_Atmega1281_Rf212_Gcc.a(machwiPollHandler.o)
                0x00016218                machwiPollReqHandler
 .text.machwiPurgeReqHandler
                0x00016374       0x2e ./../../../../BitCloud/lib/libBc_All_Sec_Atmega1281_Rf212_Gcc.a(machwiPurgeHandler.o)
                0x00016374                machwiPurgeReqHandler
 .text.finishResetOperationsAndGenerateConfirm
                0x000163a2        0xe ./../../../../BitCloud/lib/libBc_All_Sec_Atmega1281_Rf212_Gcc.a(machwiResetHandler.o)
 .text.machwdSetTrxStateConfirm
                0x000163b0        0x6 ./../../../../BitCloud/lib/libBc_All_Sec_Atmega1281_Rf212_Gcc.a(machwiResetHandler.o)
 .text.machwdSetConfirm
                0x000163b6       0x1c ./../../../../BitCloud/lib/libBc_All_Sec_Atmega1281_Rf212_Gcc.a(machwiResetHandler.o)
 .text.machwiResetReqHandler
                0x000163d2       0x72 ./../../../../BitCloud/lib/libBc_All_Sec_Atmega1281_Rf212_Gcc.a(machwiResetHandler.o)
                0x000163d2                machwiResetReqHandler
 .text.machwdSetTrxStateConfirm
                0x00016444       0x12 ./../../../../BitCloud/lib/libBc_All_Sec_Atmega1281_Rf212_Gcc.a(machwiRxEnableHandler.o)
 .text.machwiRxEnableReqHandler
                0x00016456       0x3a ./../../../../BitCloud/lib/libBc_All_Sec_Atmega1281_Rf212_Gcc.a(machwiRxEnableHandler.o)
                0x00016456                machwiRxEnableReqHandler
 .text.setNextChannel
                0x00016490       0x7a ./../../../../BitCloud/lib/libBc_All_Sec_Atmega1281_Rf212_Gcc.a(machwiScanHandler.o)
 .text.switchToActiveChannel
                0x0001650a       0x2c ./../../../../BitCloud/lib/libBc_All_Sec_Atmega1281_Rf212_Gcc.a(machwiScanHandler.o)
 .text.halScanTimerFired
                0x00016536       0x2a ./../../../../BitCloud/lib/libBc_All_Sec_Atmega1281_Rf212_Gcc.a(machwiScanHandler.o)
 .text.machwdDataConfirm
                0x00016560       0x76 ./../../../../BitCloud/lib/libBc_All_Sec_Atmega1281_Rf212_Gcc.a(machwiScanHandler.o)
 .text.machwdEdConfirm
                0x000165d6       0xf0 ./../../../../BitCloud/lib/libBc_All_Sec_Atmega1281_Rf212_Gcc.a(machwiScanHandler.o)
 .text.trxStateHandling
                0x000166c6       0x1a ./../../../../BitCloud/lib/libBc_All_Sec_Atmega1281_Rf212_Gcc.a(machwiScanHandler.o)
 .text.finishScan
                0x000166e0        0xe ./../../../../BitCloud/lib/libBc_All_Sec_Atmega1281_Rf212_Gcc.a(machwiScanHandler.o)
 .text.generateScanConfirm
                0x000166ee       0x12 ./../../../../BitCloud/lib/libBc_All_Sec_Atmega1281_Rf212_Gcc.a(machwiScanHandler.o)
 .text.machwdSetConfirm
                0x00016700      0x2ea ./../../../../BitCloud/lib/libBc_All_Sec_Atmega1281_Rf212_Gcc.a(machwiScanHandler.o)
 .text.machwdSetTrxStateConfirm
                0x000169ea       0xf2 ./../../../../BitCloud/lib/libBc_All_Sec_Atmega1281_Rf212_Gcc.a(machwiScanHandler.o)
 .text.machwiScanReqHandler
                0x00016adc      0x1a0 ./../../../../BitCloud/lib/libBc_All_Sec_Atmega1281_Rf212_Gcc.a(machwiScanHandler.o)
                0x00016adc                machwiScanReqHandler
 .text.machwiBeaconInd
                0x00016c7c      0x2da ./../../../../BitCloud/lib/libBc_All_Sec_Atmega1281_Rf212_Gcc.a(machwiScanHandler.o)
                0x00016c7c                machwiBeaconInd
 .text.machwiCoordRealignmentCommandInd
                0x00016f56       0xe6 ./../../../../BitCloud/lib/libBc_All_Sec_Atmega1281_Rf212_Gcc.a(machwiScanHandler.o)
                0x00016f56                machwiCoordRealignmentCommandInd
 .text.machwiResetScanHandler
                0x0001703c        0x6 ./../../../../BitCloud/lib/libBc_All_Sec_Atmega1281_Rf212_Gcc.a(machwiScanHandler.o)
                0x0001703c                machwiResetScanHandler
 .text.machwdSetConfirm
                0x00017042        0xe ./../../../../BitCloud/lib/libBc_All_Sec_Atmega1281_Rf212_Gcc.a(machwiSetGetHandler.o)
 .text.machwiGetReqHandler
                0x00017050       0x4c ./../../../../BitCloud/lib/libBc_All_Sec_Atmega1281_Rf212_Gcc.a(machwiSetGetHandler.o)
                0x00017050                machwiGetReqHandler
 .text.machwiSetReqHandler
                0x0001709c       0xae ./../../../../BitCloud/lib/libBc_All_Sec_Atmega1281_Rf212_Gcc.a(machwiSetGetHandler.o)
                0x0001709c                machwiSetReqHandler
 .text.setHandling
                0x0001714a       0x64 ./../../../../BitCloud/lib/libBc_All_Sec_Atmega1281_Rf212_Gcc.a(machwiStartHandler.o)
 .text.setStartReqParam
                0x000171ae       0xa8 ./../../../../BitCloud/lib/libBc_All_Sec_Atmega1281_Rf212_Gcc.a(machwiStartHandler.o)
 .text.generateConfirm
                0x00017256       0x3a ./../../../../BitCloud/lib/libBc_All_Sec_Atmega1281_Rf212_Gcc.a(machwiStartHandler.o)
 .text.machwdSetConfirm
                0x00017290      0x19e ./../../../../BitCloud/lib/libBc_All_Sec_Atmega1281_Rf212_Gcc.a(machwiStartHandler.o)
 .text.machwdDataConfirm
                0x0001742e       0x36 ./../../../../BitCloud/lib/libBc_All_Sec_Atmega1281_Rf212_Gcc.a(machwiStartHandler.o)
 .text.machwiStartReqHandler
                0x00017464       0x56 ./../../../../BitCloud/lib/libBc_All_Sec_Atmega1281_Rf212_Gcc.a(machwiStartHandler.o)
                0x00017464                machwiStartReqHandler
 .text.machwiResetStartHandler
                0x000174ba        0xa ./../../../../BitCloud/lib/libBc_All_Sec_Atmega1281_Rf212_Gcc.a(machwiStartHandler.o)
                0x000174ba                machwiResetStartHandler
 .text.machwdSetTrxStateConfirm
                0x000174c4        0xc ./../../../../BitCloud/lib/libBc_All_Sec_Atmega1281_Rf212_Gcc.a(machwiSwitchRxCtrl.o)
 .text.machwiSwitchRxAccordToRxOnWhenIdle
                0x000174d0       0x2a ./../../../../BitCloud/lib/libBc_All_Sec_Atmega1281_Rf212_Gcc.a(machwiSwitchRxCtrl.o)
                0x000174d0                machwiSwitchRxAccordToRxOnWhenIdle
 .text.machwiResetTransactionHandler
                0x000174fa        0xa ./../../../../BitCloud/lib/libBc_All_Sec_Atmega1281_Rf212_Gcc.a(machwiTransactionHandler.o)
                0x000174fa                machwiResetTransactionHandler
 .text.machwiSendTransactionEvent
                0x00017504      0x1da ./../../../../BitCloud/lib/libBc_All_Sec_Atmega1281_Rf212_Gcc.a(machwiTransactionHandler.o)
                0x00017504                machwiSendTransactionEvent
 .text.machwdDataConfirm
                0x000176de       0xbc ./../../../../BitCloud/lib/libBc_All_Sec_Atmega1281_Rf212_Gcc.a(machwiTransactionHandler.o)
 .text.stopTransactionTimer
                0x0001779a        0xa ./../../../../BitCloud/lib/libBc_All_Sec_Atmega1281_Rf212_Gcc.a(machwiTransactionQueue.o)
 .text.transactionTimerFired
                0x000177a4       0x5e ./../../../../BitCloud/lib/libBc_All_Sec_Atmega1281_Rf212_Gcc.a(machwiTransactionQueue.o)
 .text.machwiPutTransactionToQueue
                0x00017802       0x70 ./../../../../BitCloud/lib/libBc_All_Sec_Atmega1281_Rf212_Gcc.a(machwiTransactionQueue.o)
                0x00017802                machwiPutTransactionToQueue
 .text.machwiGetActivatedTransactionFromQueue
                0x00017872       0x20 ./../../../../BitCloud/lib/libBc_All_Sec_Atmega1281_Rf212_Gcc.a(machwiTransactionQueue.o)
                0x00017872                machwiGetActivatedTransactionFromQueue
 .text.machwiTestAndKickQueueTransactions
                0x00017892      0x24e ./../../../../BitCloud/lib/libBc_All_Sec_Atmega1281_Rf212_Gcc.a(machwiTransactionQueue.o)
                0x00017892                machwiTestAndKickQueueTransactions
 .text.machwiFillPendingAddrSpecAndList
                0x00017ae0        0x8 ./../../../../BitCloud/lib/libBc_All_Sec_Atmega1281_Rf212_Gcc.a(machwiTransactionQueue.o)
                0x00017ae0                machwiFillPendingAddrSpecAndList
 .text.machwiDeleteTransactionFromQueue
                0x00017ae8       0x1c ./../../../../BitCloud/lib/libBc_All_Sec_Atmega1281_Rf212_Gcc.a(machwiTransactionQueue.o)
                0x00017ae8                machwiDeleteTransactionFromQueue
 .text.machwiPurgeTransactionFromQueue
                0x00017b04       0x3a ./../../../../BitCloud/lib/libBc_All_Sec_Atmega1281_Rf212_Gcc.a(machwiTransactionQueue.o)
                0x00017b04                machwiPurgeTransactionFromQueue
 .text.machwiResetTransactionQueue
                0x00017b3e       0x36 ./../../../../BitCloud/lib/libBc_All_Sec_Atmega1281_Rf212_Gcc.a(machwiTransactionQueue.o)
                0x00017b3e                machwiResetTransactionQueue
 .text.machwiTransactionQueueEmpty
                0x00017b74       0x14 ./../../../../BitCloud/lib/libBc_All_Sec_Atmega1281_Rf212_Gcc.a(machwiTransactionQueue.o)
                0x00017b74                machwiTransactionQueueEmpty
 .text.SYS_GetRandomNumber
                0x00017b88       0x2a ./../../../../BitCloud/lib/libBc_All_Sec_Atmega1281_Rf212_Gcc.a(mnUtils.o)
 .text.SYS_GetRandomSequence
                0x00017bb2       0x6e ./../../../../BitCloud/lib/libBc_All_Sec_Atmega1281_Rf212_Gcc.a(mnUtils.o)
                0x00017bb2                SYS_GetRandomSequence
 .text.phySetFreq
                0x00017c20       0x5c ./../../../../BitCloud/lib/libBc_All_Sec_Atmega1281_Rf212_Gcc.a(phyInit.o)
                0x00017c20                phySetFreq
 .text.RF_Init  0x00017c7c       0x58 ./../../../../BitCloud/lib/libBc_All_Sec_Atmega1281_Rf212_Gcc.a(phyInit.o)
                0x00017c7c                RF_Init
 .text.PHY_RegWriteReq
                0x00017cd4       0x4a ./../../../../BitCloud/lib/libBc_All_Sec_Atmega1281_Rf212_Gcc.a(phyRegAccess.o)
                0x00017cd4                PHY_RegWriteReq
 .text.PHY_RegReadReq
                0x00017d1e       0x4c ./../../../../BitCloud/lib/libBc_All_Sec_Atmega1281_Rf212_Gcc.a(phyRegAccess.o)
                0x00017d1e                PHY_RegReadReq
 .text.PHY_Reset
                0x00017d6a       0xe2 ./../../../../BitCloud/lib/libBc_All_Sec_Atmega1281_Rf212_Gcc.a(phyReset.o)
                0x00017d6a                PHY_Reset
 .text.phyWriteRegister
                0x00017e4c       0x30 ./../../../../BitCloud/lib/libBc_All_Sec_Atmega1281_Rf212_Gcc.a(phyRfSpiProto.o)
                0x00017e4c                phyWriteRegister
 .text.phyReadRegister
                0x00017e7c       0x32 ./../../../../BitCloud/lib/libBc_All_Sec_Atmega1281_Rf212_Gcc.a(phyRfSpiProto.o)
                0x00017e7c                phyReadRegister
 .text.phyReadFrame
                0x00017eae       0x2e ./../../../../BitCloud/lib/libBc_All_Sec_Atmega1281_Rf212_Gcc.a(phyRfSpiProto.o)
                0x00017eae                phyReadFrame
 .text.phyWriteFrame
                0x00017edc       0x2e ./../../../../BitCloud/lib/libBc_All_Sec_Atmega1281_Rf212_Gcc.a(phyRfSpiProto.o)
                0x00017edc                phyWriteFrame
 .text.phyEncryptOverSpi
                0x00017f0a      0x104 ./../../../../BitCloud/lib/libBc_All_Sec_Atmega1281_Rf212_Gcc.a(phyRfSpiProto.o)
                0x00017f0a                phyEncryptOverSpi
 .text.PHY_RndReq
                0x0001800e       0xfe ./../../../../BitCloud/lib/libBc_All_Sec_Atmega1281_Rf212_Gcc.a(phyRnd.o)
                0x0001800e                PHY_RndReq
 .text.PHY_DownloadFrame
                0x0001810c      0x172 ./../../../../BitCloud/lib/libBc_All_Sec_Atmega1281_Rf212_Gcc.a(phyRxFrame.o)
                0x0001810c                PHY_DownloadFrame
 .text.adjustInputPwr
                0x0001827e       0x22 ./../../../../BitCloud/lib/libBc_All_Sec_Atmega1281_Rf212_Gcc.a(phySet.o)
 .text.storeParameterToRf
                0x000182a0       0x64 ./../../../../BitCloud/lib/libBc_All_Sec_Atmega1281_Rf212_Gcc.a(phySet.o)
 .text.PHY_SetReq
                0x00018304      0x356 ./../../../../BitCloud/lib/libBc_All_Sec_Atmega1281_Rf212_Gcc.a(phySet.o)
                0x00018304                PHY_SetReq
 .text.PHY_SetTrxStateReq
                0x0001865a       0x96 ./../../../../BitCloud/lib/libBc_All_Sec_Atmega1281_Rf212_Gcc.a(phySetTrxState.o)
                0x0001865a                PHY_SetTrxStateReq
 .text.PHY_CheckStateTransition
                0x000186f0       0x26 ./../../../../BitCloud/lib/libBc_All_Sec_Atmega1281_Rf212_Gcc.a(phyStateMachine.o)
                0x000186f0                PHY_CheckStateTransition
 .text.PHY_DataReq
                0x00018716       0x20 ./../../../../BitCloud/lib/libBc_All_Sec_Atmega1281_Rf212_Gcc.a(phyTxFrame.o)
                0x00018716                PHY_DataReq
 .text.xorBuf   0x00018736       0x22 ./../../../../BitCloud/lib/libBc_All_Sec_Atmega1281_Rf212_Gcc.a(sspCcmHandler.o)
 .text.setKeyToAesEngine
                0x00018758       0x2e ./../../../../BitCloud/lib/libBc_All_Sec_Atmega1281_Rf212_Gcc.a(sspCcmHandler.o)
 .text.calculateNextS.clone.1.clone.2
                0x00018786       0x4e ./../../../../BitCloud/lib/libBc_All_Sec_Atmega1281_Rf212_Gcc.a(sspCcmHandler.o)
 .text.calculateNextX.clone.0.clone.3
                0x000187d4       0x72 ./../../../../BitCloud/lib/libBc_All_Sec_Atmega1281_Rf212_Gcc.a(sspCcmHandler.o)
 .text.sspAesConf
                0x00018846      0x28e ./../../../../BitCloud/lib/libBc_All_Sec_Atmega1281_Rf212_Gcc.a(sspCcmHandler.o)
 .text.ccmAuthReq
                0x00018ad4       0x18 ./../../../../BitCloud/lib/libBc_All_Sec_Atmega1281_Rf212_Gcc.a(sspCcmHandler.o)
                0x00018ad4                ccmAuthReq
 .text.ccmCryptReq
                0x00018aec       0x18 ./../../../../BitCloud/lib/libBc_All_Sec_Atmega1281_Rf212_Gcc.a(sspCcmHandler.o)
                0x00018aec                ccmCryptReq
 .text.ccmCheckMicReq
                0x00018b04       0x1a ./../../../../BitCloud/lib/libBc_All_Sec_Atmega1281_Rf212_Gcc.a(sspCcmHandler.o)
                0x00018b04                ccmCheckMicReq
 .text.SYS_StartTimer
                0x00018b1e       0x14 ./../../../../BitCloud/lib/libBc_All_Sec_Atmega1281_Rf212_Gcc.a(sysTimer.o)
                0x00018b1e                SYS_StartTimer
 .text.SYS_StopTimer
                0x00018b32       0x12 ./../../../../BitCloud/lib/libBc_All_Sec_Atmega1281_Rf212_Gcc.a(sysTimer.o)
                0x00018b32                SYS_StopTimer
 .text.SYS_InitTimer
                0x00018b44       0x34 ./../../../../BitCloud/lib/libBc_All_Sec_Atmega1281_Rf212_Gcc.a(sysTimer.o)
                0x00018b44                SYS_InitTimer
 .text.APS_UpdateDeviceInd
                0x00018b78       0x20 ./../../../../BitCloud/lib/libBc_All_Sec_Atmega1281_Rf212_Gcc.a(tcIndInput.o)
                0x00018b78                APS_UpdateDeviceInd
 .text.APS_TransportKeyConf
                0x00018b98       0x34 ./../../../../BitCloud/lib/libBc_All_Sec_Atmega1281_Rf212_Gcc.a(tcKeyUpdateHandler.o)
 .text.keyUpdateTimerFired
                0x00018bcc       0x48 ./../../../../BitCloud/lib/libBc_All_Sec_Atmega1281_Rf212_Gcc.a(tcKeyUpdateHandler.o)
 .text.APS_SwitchKeyConf
                0x00018c14       0x3e ./../../../../BitCloud/lib/libBc_All_Sec_Atmega1281_Rf212_Gcc.a(tcKeyUpdateHandler.o)
 .text.tcResetKeyUpdateHandler
                0x00018c52       0x14 ./../../../../BitCloud/lib/libBc_All_Sec_Atmega1281_Rf212_Gcc.a(tcKeyUpdateHandler.o)
                0x00018c52                tcResetKeyUpdateHandler
 .text.tcKeyUpdateTaskHandler
                0x00018c66       0x86 ./../../../../BitCloud/lib/libBc_All_Sec_Atmega1281_Rf212_Gcc.a(tcKeyUpdateHandler.o)
                0x00018c66                tcKeyUpdateTaskHandler
 .text.APS_RemoveDeviceConf
                0x00018cec       0x3c ./../../../../BitCloud/lib/libBc_All_Sec_Atmega1281_Rf212_Gcc.a(tcRemoveHandler.o)
 .text.tcUpdateDeviceIndToRemoveHandler
                0x00018d28        0xe ./../../../../BitCloud/lib/libBc_All_Sec_Atmega1281_Rf212_Gcc.a(tcRemoveHandler.o)
                0x00018d28                tcUpdateDeviceIndToRemoveHandler
 .text.tcRemoveTaskHandler
                0x00018d36       0x84 ./../../../../BitCloud/lib/libBc_All_Sec_Atmega1281_Rf212_Gcc.a(tcRemoveHandler.o)
                0x00018d36                tcRemoveTaskHandler
 .text.tcResetRemoveHandler
                0x00018dba       0x12 ./../../../../BitCloud/lib/libBc_All_Sec_Atmega1281_Rf212_Gcc.a(tcRemoveHandler.o)
                0x00018dba                tcResetRemoveHandler
 .text.TC_Reset
                0x00018dcc       0x18 ./../../../../BitCloud/lib/libBc_All_Sec_Atmega1281_Rf212_Gcc.a(tcResetHandler.o)
                0x00018dcc                TC_Reset
 .text.machwdCalibReqHandler
                0x00018de4        0xe ./../../../../BitCloud/lib/libBc_All_Sec_Atmega1281_Rf212_Gcc.a(machwdCalibHandler.o)
                0x00018de4                machwdCalibReqHandler
 .text.machwdEdReqHandler
                0x00018df2        0xa ./../../../../BitCloud/lib/libBc_All_Sec_Atmega1281_Rf212_Gcc.a(machwdEdHandler.o)
                0x00018df2                machwdEdReqHandler
 .text.machwdEdTaskHandler
                0x00018dfc       0x14 ./../../../../BitCloud/lib/libBc_All_Sec_Atmega1281_Rf212_Gcc.a(machwdEdHandler.o)
                0x00018dfc                machwdEdTaskHandler
 .text.machwdEncryptReqHandler
                0x00018e10        0xe ./../../../../BitCloud/lib/libBc_All_Sec_Atmega1281_Rf212_Gcc.a(machwdEncryptHandler.o)
                0x00018e10                machwdEncryptReqHandler
 .text.composePanIdAndAddress
                0x00018e1e       0x56 ./../../../../BitCloud/lib/libBc_All_Sec_Atmega1281_Rf212_Gcc.a(machwdFrameRoutine.o)
 .text.parsePanIdAndAddress
                0x00018e74       0x58 ./../../../../BitCloud/lib/libBc_All_Sec_Atmega1281_Rf212_Gcc.a(machwdFrameRoutine.o)
 .text.machwdParseFrame
                0x00018ecc      0x276 ./../../../../BitCloud/lib/libBc_All_Sec_Atmega1281_Rf212_Gcc.a(machwdFrameRoutine.o)
                0x00018ecc                machwdParseFrame
 .text.machwdComposeFrame
                0x00019142      0x1c0 ./../../../../BitCloud/lib/libBc_All_Sec_Atmega1281_Rf212_Gcc.a(machwdFrameRoutine.o)
                0x00019142                machwdComposeFrame
 .text.machwdGetHandlerId
                0x00019302       0x3a ./../../../../BitCloud/lib/libBc_All_Sec_Atmega1281_Rf212_Gcc.a(machwdHandlerCtrl.o)
                0x00019302                machwdGetHandlerId
 .text.setHandling
                0x0001933c       0x64 ./../../../../BitCloud/lib/libBc_All_Sec_Atmega1281_Rf212_Gcc.a(machwiAssociateHandler.o)
 .text.completeHandling
                0x000193a0       0x18 ./../../../../BitCloud/lib/libBc_All_Sec_Atmega1281_Rf212_Gcc.a(machwiAssociateHandler.o)
 .text.machwdSetConfirm
                0x000193b8      0x18c ./../../../../BitCloud/lib/libBc_All_Sec_Atmega1281_Rf212_Gcc.a(machwiAssociateHandler.o)
 .text.machwdDataConfirm
                0x00019544       0xae ./../../../../BitCloud/lib/libBc_All_Sec_Atmega1281_Rf212_Gcc.a(machwiAssociateHandler.o)
 .text.associateTimerFired
                0x000195f2      0x100 ./../../../../BitCloud/lib/libBc_All_Sec_Atmega1281_Rf212_Gcc.a(machwiAssociateHandler.o)
 .text.switchingCompleted
                0x000196f2       0x12 ./../../../../BitCloud/lib/libBc_All_Sec_Atmega1281_Rf212_Gcc.a(machwiAssociateHandler.o)
 .text.machwiResetAssociateHandler
                0x00019704        0x6 ./../../../../BitCloud/lib/libBc_All_Sec_Atmega1281_Rf212_Gcc.a(machwiAssociateHandler.o)
                0x00019704                machwiResetAssociateHandler
 .text.machwiAssociateReqInd
                0x0001970a       0x52 ./../../../../BitCloud/lib/libBc_All_Sec_Atmega1281_Rf212_Gcc.a(machwiAssociateHandler.o)
                0x0001970a                machwiAssociateReqInd
 .text.machwiAssociateReqHandler
                0x0001975c       0x9a ./../../../../BitCloud/lib/libBc_All_Sec_Atmega1281_Rf212_Gcc.a(machwiAssociateHandler.o)
                0x0001975c                machwiAssociateReqHandler
 .text.machwiAssociateRespHandler
                0x000197f6       0x20 ./../../../../BitCloud/lib/libBc_All_Sec_Atmega1281_Rf212_Gcc.a(machwiAssociateHandler.o)
                0x000197f6                machwiAssociateRespHandler
 .text.machwiAssociateRespInd
                0x00019816      0x132 ./../../../../BitCloud/lib/libBc_All_Sec_Atmega1281_Rf212_Gcc.a(machwiAssociateHandler.o)
                0x00019816                machwiAssociateRespInd
 .text.machwdDataConfirm
                0x00019948       0x20 ./../../../../BitCloud/lib/libBc_All_Sec_Atmega1281_Rf212_Gcc.a(machwiBeaconHandler.o)
 .text.machwiSendBeacon
                0x00019968      0x102 ./../../../../BitCloud/lib/libBc_All_Sec_Atmega1281_Rf212_Gcc.a(machwiBeaconHandler.o)
                0x00019968                machwiSendBeacon
 .text.machwdDataConfirm
                0x00019a6a       0x26 ./../../../../BitCloud/lib/libBc_All_Sec_Atmega1281_Rf212_Gcc.a(machwiDataHandler.o)
 .text.machwiConvertmachwdDataConfirmTypes
                0x00019a90       0x14 ./../../../../BitCloud/lib/libBc_All_Sec_Atmega1281_Rf212_Gcc.a(machwiDataHandler.o)
                0x00019a90                machwiConvertmachwdDataConfirmTypes
 .text.machwiPrepareDataFrame
                0x00019aa4      0x10e ./../../../../BitCloud/lib/libBc_All_Sec_Atmega1281_Rf212_Gcc.a(machwiDataHandler.o)
                0x00019aa4                machwiPrepareDataFrame
 .text.machwiDataReqHandler
                0x00019bb2       0x62 ./../../../../BitCloud/lib/libBc_All_Sec_Atmega1281_Rf212_Gcc.a(machwiDataHandler.o)
                0x00019bb2                machwiDataReqHandler
 .text.PHY_CalibReq
                0x00019c14       0xb4 ./../../../../BitCloud/lib/libBc_All_Sec_Atmega1281_Rf212_Gcc.a(phyCalib.o)
                0x00019c14                PHY_CalibReq
 .text.PHY_EdReq
                0x00019cc8       0x38 ./../../../../BitCloud/lib/libBc_All_Sec_Atmega1281_Rf212_Gcc.a(phyEd.o)
                0x00019cc8                PHY_EdReq
 .text.PHY_Encrypt
                0x00019d00       0x46 ./../../../../BitCloud/lib/libBc_All_Sec_Atmega1281_Rf212_Gcc.a(phyEncrypt.o)
                0x00019d00                PHY_Encrypt
 .text.phySetRTimerSource
                0x00019d46        0x6 ./../../../../BitCloud/lib/libBc_All_Sec_Atmega1281_Rf212_Gcc.a(phyRtimerIrqDispatcher.o)
                0x00019d46                phySetRTimerSource
 .text.phyDispatcheRTimerEvent
                0x00019d4c       0xde ./../../../../BitCloud/lib/libBc_All_Sec_Atmega1281_Rf212_Gcc.a(phyRtimerIrqDispatcher.o)
                0x00019d4c                phyDispatcheRTimerEvent
 .text.APS_TransportKeyConf
                0x00019e2a       0x16 ./../../../../BitCloud/lib/libBc_All_Sec_Atmega1281_Rf212_Gcc.a(tcAuthenticHandler.o)
 .text.tcUpdateDeviceIndToAuthenticHandler
                0x00019e40      0x16c ./../../../../BitCloud/lib/libBc_All_Sec_Atmega1281_Rf212_Gcc.a(tcAuthenticHandler.o)
                0x00019e40                tcUpdateDeviceIndToAuthenticHandler
 .text.tcResetAuthenticHandler
                0x00019fac       0x34 ./../../../../BitCloud/lib/libBc_All_Sec_Atmega1281_Rf212_Gcc.a(tcAuthenticHandler.o)
                0x00019fac                tcResetAuthenticHandler
 .text.HAL_Init
                0x00019fe0       0x20 ./../../../../BitCloud/lib/libHAL_ZigBit_Atmega1281_8Mhz_Gcc.a(halInit.o)
                0x00019fe0                HAL_Init
 .text.halReadUid
                0x0001a000       0x94 ./../../../../BitCloud/lib/libHAL_ZigBit_Atmega1281_8Mhz_Gcc.a(halUid.o)
                0x0001a000                halReadUid
 .text.HAL_ReadUid
                0x0001a094       0x44 ./../../../../BitCloud/lib/libHAL_ZigBit_Atmega1281_8Mhz_Gcc.a(halUid.o)
                0x0001a094                HAL_ReadUid
 .text.HAL_InitMacIsr
                0x0001a0d8        0xc ./../../../../BitCloud/lib/libHAL_ZigBit_Atmega1281_8Mhz_Gcc.a(halMacIsr.o)
                0x0001a0d8                HAL_InitMacIsr
 .text.HAL_StartRtimer
                0x0001a0e4       0x7a ./../../../../BitCloud/lib/libHAL_ZigBit_Atmega1281_8Mhz_Gcc.a(halMacIsr.o)
                0x0001a0e4                HAL_StartRtimer
 .text.HAL_StopRtimer
                0x0001a15e       0x14 ./../../../../BitCloud/lib/libHAL_ZigBit_Atmega1281_8Mhz_Gcc.a(halMacIsr.o)
                0x0001a15e                HAL_StopRtimer
 .text.__vector_43
                0x0001a172       0xba ./../../../../BitCloud/lib/libHAL_ZigBit_Atmega1281_8Mhz_Gcc.a(halMacIsr.o)
                0x0001a172                __vector_43
 .text.__vector_6
                0x0001a22c       0x50 ./../../../../BitCloud/lib/libHAL_ZigBit_Atmega1281_8Mhz_Gcc.a(halMacIsr.o)
                0x0001a22c                __vector_6
 .text.halWriteSingleWireBit
                0x0001a27c       0x12 ./../../../../BitCloud/lib/libHAL_ZigBit_Atmega1281_8Mhz_Gcc.a(halAtmelUid.o)
 .text.halWriteSingleWire
                0x0001a28e       0x2e ./../../../../BitCloud/lib/libHAL_ZigBit_Atmega1281_8Mhz_Gcc.a(halAtmelUid.o)
 .text.halReadSingleWireBit
                0x0001a2bc       0x14 ./../../../../BitCloud/lib/libHAL_ZigBit_Atmega1281_8Mhz_Gcc.a(halAtmelUid.o)
 .text.halReadSingleWire
                0x0001a2d0       0x84 ./../../../../BitCloud/lib/libHAL_ZigBit_Atmega1281_8Mhz_Gcc.a(halAtmelUid.o)
 .text.halReadAtmelMeshbeanUid
                0x0001a354       0x86 ./../../../../BitCloud/lib/libHAL_ZigBit_Atmega1281_8Mhz_Gcc.a(halAtmelUid.o)
                0x0001a354                halReadAtmelMeshbeanUid
 .text.halW1CRC
                0x0001a3da       0x4c ./../../../../BitCloud/lib/libHAL_ZigBit_Atmega1281_8Mhz_Gcc.a(w1.o)
                0x0001a3da                halW1CRC
 .text.halSearchW1
                0x0001a426       0xf8 ./../../../../BitCloud/lib/libHAL_ZigBit_Atmega1281_8Mhz_Gcc.a(w1.o)
                0x0001a426                halSearchW1
 .text.halCommSearchW1
                0x0001a51e       0xa6 ./../../../../BitCloud/lib/libHAL_ZigBit_Atmega1281_8Mhz_Gcc.a(w1.o)
                0x0001a51e                halCommSearchW1
 .text.HAL_SearchW1Device
                0x0001a5c4       0x1e ./../../../../BitCloud/lib/libHAL_ZigBit_Atmega1281_8Mhz_Gcc.a(w1.o)
                0x0001a5c4                HAL_SearchW1Device
 .text.phyDispatcheRfInterrupt
                0x0001a5e2      0x2ce ./../../../../BitCloud/lib/libBc_All_Sec_Atmega1281_Rf212_Gcc.a(phyRfIrqDispatcher.o)
                0x0001a5e2                phyDispatcheRfInterrupt
 .text.libgcc   0x0001a8b0       0x3e c:/winavr-20100110/bin/../lib/gcc/avr/4.3.3/avr51\libgcc.a(_mulsi3.o)
                0x0001a8b0                __mulsi3
 .text.libgcc   0x0001a8ee       0x18 c:/winavr-20100110/bin/../lib/gcc/avr/4.3.3/avr51\libgcc.a(_udivmodqi4.o)
                0x0001a8ee                __udivmodqi4
 .text.libgcc   0x0001a906       0x28 c:/winavr-20100110/bin/../lib/gcc/avr/4.3.3/avr51\libgcc.a(_udivmodhi4.o)
                0x0001a906                __udivmodhi4
 .text.libgcc   0x0001a92e       0x26 c:/winavr-20100110/bin/../lib/gcc/avr/4.3.3/avr51\libgcc.a(_divmodhi4.o)
                0x0001a92e                __divmodhi4
                0x0001a92e                _div
 .text.libgcc   0x0001a954       0x44 c:/winavr-20100110/bin/../lib/gcc/avr/4.3.3/avr51\libgcc.a(_udivmodsi4.o)
                0x0001a954                __udivmodsi4
 .text.libgcc   0x0001a998       0x38 c:/winavr-20100110/bin/../lib/gcc/avr/4.3.3/avr51\libgcc.a(_prologue.o)
                0x0001a998                __prologue_saves__
 .text.libgcc   0x0001a9d0       0x36 c:/winavr-20100110/bin/../lib/gcc/avr/4.3.3/avr51\libgcc.a(_epilogue.o)
                0x0001a9d0                __epilogue_restores__
 .text.libgcc   0x0001aa06        0xc c:/winavr-20100110/bin/../lib/gcc/avr/4.3.3/avr51\libgcc.a(_tablejump.o)
                0x0001aa0a                __tablejump__
                0x0001aa06                __tablejump2__
 .text.avr-libc
                0x0001aa12       0xd6 c:/winavr-20100110/bin/../lib/gcc/avr/4.3.3/../../../../avr/lib/avr51\libc.a(rand.o)
                0x0001aac2                rand_r
                0x0001aac8                rand
                0x0001aad2                srand
 .text.avr-libc
                0x0001aae8       0x12 c:/winavr-20100110/bin/../lib/gcc/avr/4.3.3/../../../../avr/lib/avr51\libc.a(memcpy_P.o)
                0x0001aae8                memcpy_P
 .text.avr-libc
                0x0001aafa       0x1a c:/winavr-20100110/bin/../lib/gcc/avr/4.3.3/../../../../avr/lib/avr51\libc.a(memcmp.o)
                0x0001aafa                memcmp
 .text.avr-libc
                0x0001ab14       0x12 c:/winavr-20100110/bin/../lib/gcc/avr/4.3.3/../../../../avr/lib/avr51\libc.a(memcpy.o)
                0x0001ab14                memcpy
 .text.avr-libc
                0x0001ab26       0x24 c:/winavr-20100110/bin/../lib/gcc/avr/4.3.3/../../../../avr/lib/avr51\libc.a(memmove.o)
                0x0001ab26                memmove
 .text.avr-libc
                0x0001ab4a        0xe c:/winavr-20100110/bin/../lib/gcc/avr/4.3.3/../../../../avr/lib/avr51\libc.a(memset.o)
                0x0001ab4a                memset
 .text.libgcc   0x0001ab58       0x36 c:/winavr-20100110/bin/../lib/gcc/avr/4.3.3/avr51\libgcc.a(_divmodsi4.o)
                0x0001ab58                __divmodsi4
                0x0001ab8e                PROVIDE (__text_end, .)

.data           0x00800200       0xf6 load address 0x0001ab8e
                0x00800200                PROVIDE (__data_start, .)
 *(.data*)
 .data          0x00800200       0x28 All_Sec_ZigBit_Atmega1281_Rf212_8Mhz_Gcc/Obj/app.o
 .data          0x00800228       0x11 All_Sec_ZigBit_Atmega1281_Rf212_8Mhz_Gcc/Obj/lm73.o
 .data          0x00800239       0x1e All_Sec_ZigBit_Atmega1281_Rf212_8Mhz_Gcc/Obj/tsl2550.o
 .data          0x00800257       0x10 All_Sec_ZigBit_Atmega1281_Rf212_8Mhz_Gcc/Obj/csMem.o
                0x00800257                defaultKey
 .data          0x00800267        0x9 ./../../../../BitCloud/lib/libHAL_ZigBit_Atmega1281_8Mhz_Gcc.a(usart.o)
 .data          0x00800270        0x9 ./../../../../BitCloud/lib/libBc_All_Sec_Atmega1281_Rf212_Gcc.a(nwk.o)
 .data          0x00800279       0x16 ./../../../../BitCloud/lib/libBc_All_Sec_Atmega1281_Rf212_Gcc.a(taskManager.o)
 .data          0x0080028f       0x26 ./../../../../BitCloud/lib/libBc_All_Sec_Atmega1281_Rf212_Gcc.a(zdo.o)
 .data          0x008002b5       0x14 ./../../../../BitCloud/lib/libBc_All_Sec_Atmega1281_Rf212_Gcc.a(aps.o)
 .data          0x008002c9       0x18 ./../../../../BitCloud/lib/libBc_All_Sec_Atmega1281_Rf212_Gcc.a(machwdTrxCtrl.o)
 .data          0x008002e1        0x6 ./../../../../BitCloud/lib/libBc_All_Sec_Atmega1281_Rf212_Gcc.a(machwdTxFrameHandler.o)
 .data          0x008002e7        0x5 ./../../../../BitCloud/lib/libBc_All_Sec_Atmega1281_Rf212_Gcc.a(machwiSetGetHandler.o)
 .data          0x008002ec        0x2 ./../../../../BitCloud/lib/libBc_All_Sec_Atmega1281_Rf212_Gcc.a(machwdFrameRoutine.o)
 .data          0x008002ee        0x4 ./../../../../BitCloud/lib/libBc_All_Sec_Atmega1281_Rf212_Gcc.a(machwiDataHandler.o)
 .data          0x008002f2        0x4 c:/winavr-20100110/bin/../lib/gcc/avr/4.3.3/../../../../avr/lib/avr51\libc.a(rand.o)
 *(.rodata*)
 *(.gnu.linkonce.d*)
                0x008002f6                . = ALIGN (0x2)
                0x008002f6                PROVIDE (__data_end, .)

.bss            0x008002f6     0x13a7 load address 0x0001ac84
                0x008002f6                PROVIDE (__bss_start, .)
 *(.bss*)
 .bss           0x008002f6       0x2f All_Sec_ZigBit_Atmega1281_Rf212_8Mhz_Gcc/Obj/app.o
 .bss           0x00800325        0x8 All_Sec_ZigBit_Atmega1281_Rf212_8Mhz_Gcc/Obj/pdsWriteData.o
 .bss           0x0080032d        0x6 All_Sec_ZigBit_Atmega1281_Rf212_8Mhz_Gcc/Obj/buttons.o
 .bss           0x00800333        0x8 All_Sec_ZigBit_Atmega1281_Rf212_8Mhz_Gcc/Obj/lm73.o
 .bss           0x0080033b        0x5 All_Sec_ZigBit_Atmega1281_Rf212_8Mhz_Gcc/Obj/tsl2550.o
 .bss           0x00800340        0x1 All_Sec_ZigBit_Atmega1281_Rf212_8Mhz_Gcc/Obj/bspTaskManager.o
                0x00800340                bspTaskFlags
 .bss           0x00800341        0x2 ./../../../../BitCloud/lib/libHAL_ZigBit_Atmega1281_8Mhz_Gcc.a(appTimer.o)
 .bss           0x00800343       0x15 ./../../../../BitCloud/lib/libHAL_ZigBit_Atmega1281_8Mhz_Gcc.a(usart.o)
                0x00800347                halEnableDtrWakeUp
                0x00800348                dtrWakeUpCallback
                0x00800343                halPointDescrip
 .bss           0x00800358        0x2 ./../../../../BitCloud/lib/libHAL_ZigBit_Atmega1281_8Mhz_Gcc.a(i2cPacket.o)
 .bss           0x0080035a        0x1 ./../../../../BitCloud/lib/libHAL_ZigBit_Atmega1281_8Mhz_Gcc.a(eeprom.o)
                0x0080035a                halEepromState
 .bss           0x0080035b        0x9 ./../../../../BitCloud/lib/libHAL_ZigBit_Atmega1281_8Mhz_Gcc.a(halSleepTimerClock.o)
                0x0080035b                halSleepTimerOvfw
 .bss           0x00800364        0x6 ./../../../../BitCloud/lib/libHAL_ZigBit_Atmega1281_8Mhz_Gcc.a(halAppClock.o)
                0x00800364                halAppTimeOvfw
 .bss           0x0080036a        0x4 ./../../../../BitCloud/lib/libHAL_ZigBit_Atmega1281_8Mhz_Gcc.a(halIrq.o)
                0x0080036a                IrqCallbackList
 .bss           0x0080036e        0x4 ./../../../../BitCloud/lib/libHAL_ZigBit_Atmega1281_8Mhz_Gcc.a(halSleep.o)
 .bss           0x00800372        0x5 ./../../../../BitCloud/lib/libHAL_ZigBit_Atmega1281_8Mhz_Gcc.a(halTaskManager.o)
                0x00800372                halTaskFlags0
                0x00800375                halTaskFlags3
                0x00800373                halTaskFlags1
                0x00800374                halTaskFlags2
                0x00800376                halTaskFlags4
 .bss           0x00800377        0x2 ./../../../../BitCloud/lib/libHAL_ZigBit_Atmega1281_8Mhz_Gcc.a(adc.o)
                0x00800377                adcDesc
 .bss           0x00800379       0x10 ./../../../../BitCloud/lib/libHAL_ZigBit_Atmega1281_8Mhz_Gcc.a(sleep.o)
                0x00800379                halSleepControl
 .bss           0x00800389        0x1 ./../../../../BitCloud/lib/libHAL_ZigBit_Atmega1281_8Mhz_Gcc.a(halClkCtrl.o)
 .bss           0x0080038a        0x6 ./../../../../BitCloud/lib/libBc_All_Sec_Atmega1281_Rf212_Gcc.a(sysEvents.o)
 .bss           0x00800390        0x2 ./../../../../BitCloud/lib/libBc_All_Sec_Atmega1281_Rf212_Gcc.a(taskManager.o)
                0x00800390                SYS_taskFlag
 .bss           0x00800392       0x3a ./../../../../BitCloud/lib/libBc_All_Sec_Atmega1281_Rf212_Gcc.a(aps.o)
                0x00800392                apsState
 .bss           0x008003cc        0x3 ./../../../../BitCloud/lib/libBc_All_Sec_Atmega1281_Rf212_Gcc.a(machwdManager.o)
                0x008003cc                machwdQueueDescr
 .bss           0x008003cf        0x1 ./../../../../BitCloud/lib/libBc_All_Sec_Atmega1281_Rf212_Gcc.a(machwdSetHandler.o)
 .bss           0x008003d0        0x1 ./../../../../BitCloud/lib/libBc_All_Sec_Atmega1281_Rf212_Gcc.a(machwiScanHandler.o)
 .bss           0x008003d1        0x8 ./../../../../BitCloud/lib/libHAL_ZigBit_Atmega1281_8Mhz_Gcc.a(halUid.o)
 .bss           0x008003d9        0xa ./../../../../BitCloud/lib/libHAL_ZigBit_Atmega1281_8Mhz_Gcc.a(w1.o)
 *(COMMON)
 COMMON         0x008003e3       0x2e All_Sec_ZigBit_Atmega1281_Rf212_8Mhz_Gcc/Obj/pdsMem.o
                0x008003e3                pdsMem
 COMMON         0x00800411        0x2 All_Sec_ZigBit_Atmega1281_Rf212_8Mhz_Gcc/Obj/fakeBSP.o
                0x00800411                readBatteryDataCallback
 COMMON         0x00800413      0xa30 All_Sec_ZigBit_Atmega1281_Rf212_8Mhz_Gcc/Obj/csMem.o
                0x00800413                stackBuffers
                0x00800d03                csAIB
                0x00800d0f                csZIB
                0x00800d3e                csPIB
                0x00800d76                csSIB
                0x00800db5                csNIB
 COMMON         0x00800e43        0x8 ./../../../../BitCloud/lib/libHAL_ZigBit_Atmega1281_8Mhz_Gcc.a(eeprom.o)
                0x00800e43                halEepromParams
                0x00800e49                halEepromDone
 COMMON         0x00800e4b        0x2 ./../../../../BitCloud/lib/libHAL_ZigBit_Atmega1281_8Mhz_Gcc.a(halTaskManager.o)
                0x00800e4b                extHandler
 COMMON         0x00800e4d      0x171 ./../../../../BitCloud/lib/libBc_All_Sec_Atmega1281_Rf212_Gcc.a(nwk.o)
                0x00800e4d                nwkMem
 COMMON         0x00800fbe       0xa5 ./../../../../BitCloud/lib/libBc_All_Sec_Atmega1281_Rf212_Gcc.a(sspMem.o)
                0x00800fbe                sspMem
 COMMON         0x00801063      0x43d ./../../../../BitCloud/lib/libBc_All_Sec_Atmega1281_Rf212_Gcc.a(zdo.o)
                0x00801063                zdoMem
 COMMON         0x008014a0       0xd7 ./../../../../BitCloud/lib/libBc_All_Sec_Atmega1281_Rf212_Gcc.a(aps.o)
                0x008014a0                apsMem
 COMMON         0x00801577       0x79 ./../../../../BitCloud/lib/libBc_All_Sec_Atmega1281_Rf212_Gcc.a(tcMem.o)
                0x00801577                tcMem
 COMMON         0x008015f0       0x87 ./../../../../BitCloud/lib/libBc_All_Sec_Atmega1281_Rf212_Gcc.a(macMem.o)
                0x008015f0                macMem
 COMMON         0x00801677       0x21 ./../../../../BitCloud/lib/libBc_All_Sec_Atmega1281_Rf212_Gcc.a(machwdFrameRoutine.o)
                0x00801677                txBuffer
 COMMON         0x00801698        0x5 ./../../../../BitCloud/lib/libHAL_ZigBit_Atmega1281_8Mhz_Gcc.a(halMacIsr.o)
                0x00801698                __rtimer
                0x0080169d                PROVIDE (__bss_end, .)

.noinit         0x0080169d        0x1 load address 0x0001c02b
 *(.noinit*)
 .noinit        0x0080169d        0x1 ./../../../../BitCloud/lib/WdtInitatmega1281_Gcc.o
                0x0080169d                halResetReason
                0x0080169e                PROVIDE (__heap_start, .)
                0x0080169e                __stack_start = .
                0x0001ab8e                __data_load_start = LOADADDR (.data)
                0x0001ac84                __data_load_end = (__data_load_start + SIZEOF (.data))

.eeprom         0x00810000     0x1000
 FILL mask 0xff
                0x00810000        0x1 BYTE 0xff
                0x00811000                . = ((. + 0x1000) - 0x1)
 *fill*         0x00810001      0xfff ff

/DISCARD/
 *(.init9)
 *(.fini*)
LOAD All_Sec_ZigBit_Atmega1281_Rf212_8Mhz_Gcc/Obj/app.o
LOAD All_Sec_ZigBit_Atmega1281_Rf212_8Mhz_Gcc/Obj/pdsMem.o
LOAD All_Sec_ZigBit_Atmega1281_Rf212_8Mhz_Gcc/Obj/pdsWriteData.o
LOAD All_Sec_ZigBit_Atmega1281_Rf212_8Mhz_Gcc/Obj/pdsDataServer.o
LOAD All_Sec_ZigBit_Atmega1281_Rf212_8Mhz_Gcc/Obj/pdsInit.o
LOAD All_Sec_ZigBit_Atmega1281_Rf212_8Mhz_Gcc/Obj/pdsTimer.o
LOAD All_Sec_ZigBit_Atmega1281_Rf212_8Mhz_Gcc/Obj/pdsEvents.o
LOAD All_Sec_ZigBit_Atmega1281_Rf212_8Mhz_Gcc/Obj/pdsMemAccess.o
LOAD All_Sec_ZigBit_Atmega1281_Rf212_8Mhz_Gcc/Obj/pdsCrcService.o
LOAD All_Sec_ZigBit_Atmega1281_Rf212_8Mhz_Gcc/Obj/sensors.o
LOAD All_Sec_ZigBit_Atmega1281_Rf212_8Mhz_Gcc/Obj/buttons.o
LOAD All_Sec_ZigBit_Atmega1281_Rf212_8Mhz_Gcc/Obj/pwrCtrl.o
LOAD All_Sec_ZigBit_Atmega1281_Rf212_8Mhz_Gcc/Obj/leds.o
LOAD All_Sec_ZigBit_Atmega1281_Rf212_8Mhz_Gcc/Obj/battery.o
LOAD All_Sec_ZigBit_Atmega1281_Rf212_8Mhz_Gcc/Obj/lm73.o
LOAD All_Sec_ZigBit_Atmega1281_Rf212_8Mhz_Gcc/Obj/tsl2550.o
LOAD All_Sec_ZigBit_Atmega1281_Rf212_8Mhz_Gcc/Obj/sliders.o
LOAD All_Sec_ZigBit_Atmega1281_Rf212_8Mhz_Gcc/Obj/fakeBSP.o
LOAD All_Sec_ZigBit_Atmega1281_Rf212_8Mhz_Gcc/Obj/bspTaskManager.o
LOAD All_Sec_ZigBit_Atmega1281_Rf212_8Mhz_Gcc/Obj/csPersistentMem.o
LOAD All_Sec_ZigBit_Atmega1281_Rf212_8Mhz_Gcc/Obj/csMem.o
LOAD All_Sec_ZigBit_Atmega1281_Rf212_8Mhz_Gcc/Obj/configServer.o
START GROUP
LOAD ./../../../../BitCloud/lib/libHAL_ZigBit_Atmega1281_8Mhz_Gcc.a
LOAD ./../../../../BitCloud/lib/libBc_All_Sec_Atmega1281_Rf212_Gcc.a
LOAD ./../../../../BitCloud/lib/WdtInitatmega1281_Gcc.o
END GROUP
LOAD c:/winavr-20100110/bin/../lib/gcc/avr/4.3.3/avr51\libgcc.a
LOAD c:/winavr-20100110/bin/../lib/gcc/avr/4.3.3/../../../../avr/lib/avr51\libc.a
LOAD c:/winavr-20100110/bin/../lib/gcc/avr/4.3.3/avr51\libgcc.a
OUTPUT(All_Sec_ZigBit_Atmega1281_Rf212_8Mhz_Gcc/Exe/App.elf elf32-avr)
LOAD linker stubs

.debug_abbrev   0x00000000     0x233e
 .debug_abbrev  0x00000000      0x278 All_Sec_ZigBit_Atmega1281_Rf212_8Mhz_Gcc/Obj/app.o
 .debug_abbrev  0x00000278       0xda All_Sec_ZigBit_Atmega1281_Rf212_8Mhz_Gcc/Obj/pdsMem.o
 .debug_abbrev  0x00000352      0x22b All_Sec_ZigBit_Atmega1281_Rf212_8Mhz_Gcc/Obj/pdsWriteData.o
 .debug_abbrev  0x0000057d      0x246 All_Sec_ZigBit_Atmega1281_Rf212_8Mhz_Gcc/Obj/pdsDataServer.o
 .debug_abbrev  0x000007c3      0x18e All_Sec_ZigBit_Atmega1281_Rf212_8Mhz_Gcc/Obj/pdsInit.o
 .debug_abbrev  0x00000951      0x139 All_Sec_ZigBit_Atmega1281_Rf212_8Mhz_Gcc/Obj/pdsTimer.o
 .debug_abbrev  0x00000a8a      0x15b All_Sec_ZigBit_Atmega1281_Rf212_8Mhz_Gcc/Obj/pdsEvents.o
 .debug_abbrev  0x00000be5      0x1e4 All_Sec_ZigBit_Atmega1281_Rf212_8Mhz_Gcc/Obj/pdsMemAccess.o
 .debug_abbrev  0x00000dc9      0x1c2 All_Sec_ZigBit_Atmega1281_Rf212_8Mhz_Gcc/Obj/pdsCrcService.o
 .debug_abbrev  0x00000f8b       0xa7 All_Sec_ZigBit_Atmega1281_Rf212_8Mhz_Gcc/Obj/sensors.o
 .debug_abbrev  0x00001032      0x1c6 All_Sec_ZigBit_Atmega1281_Rf212_8Mhz_Gcc/Obj/buttons.o
 .debug_abbrev  0x000011f8       0x33 All_Sec_ZigBit_Atmega1281_Rf212_8Mhz_Gcc/Obj/pwrCtrl.o
 .debug_abbrev  0x0000122b       0xe6 All_Sec_ZigBit_Atmega1281_Rf212_8Mhz_Gcc/Obj/leds.o
 .debug_abbrev  0x00001311       0x58 All_Sec_ZigBit_Atmega1281_Rf212_8Mhz_Gcc/Obj/battery.o
 .debug_abbrev  0x00001369      0x1dd All_Sec_ZigBit_Atmega1281_Rf212_8Mhz_Gcc/Obj/lm73.o
 .debug_abbrev  0x00001546      0x295 All_Sec_ZigBit_Atmega1281_Rf212_8Mhz_Gcc/Obj/tsl2550.o
 .debug_abbrev  0x000017db       0x91 All_Sec_ZigBit_Atmega1281_Rf212_8Mhz_Gcc/Obj/sliders.o
 .debug_abbrev  0x0000186c      0x196 All_Sec_ZigBit_Atmega1281_Rf212_8Mhz_Gcc/Obj/fakeBSP.o
 .debug_abbrev  0x00001a02      0x122 All_Sec_ZigBit_Atmega1281_Rf212_8Mhz_Gcc/Obj/bspTaskManager.o
 .debug_abbrev  0x00001b24      0x1d8 All_Sec_ZigBit_Atmega1281_Rf212_8Mhz_Gcc/Obj/csPersistentMem.o
 .debug_abbrev  0x00001cfc      0x1f4 All_Sec_ZigBit_Atmega1281_Rf212_8Mhz_Gcc/Obj/csMem.o
 .debug_abbrev  0x00001ef0      0x272 All_Sec_ZigBit_Atmega1281_Rf212_8Mhz_Gcc/Obj/configServer.o
 .debug_abbrev  0x00002162       0xee c:/winavr-20100110/bin/../lib/gcc/avr/4.3.3/avr51\libgcc.a(_lshrdi3.o)
 .debug_abbrev  0x00002250       0xee c:/winavr-20100110/bin/../lib/gcc/avr/4.3.3/avr51\libgcc.a(_ashldi3.o)

.debug_info     0x00000000    0x12eb1
 .debug_info    0x00000000      0xd62 All_Sec_ZigBit_Atmega1281_Rf212_8Mhz_Gcc/Obj/app.o
 .debug_info    0x00000d62      0x352 All_Sec_ZigBit_Atmega1281_Rf212_8Mhz_Gcc/Obj/pdsMem.o
 .debug_info    0x000010b4      0x93e All_Sec_ZigBit_Atmega1281_Rf212_8Mhz_Gcc/Obj/pdsWriteData.o
 .debug_info    0x000019f2      0xcc8 All_Sec_ZigBit_Atmega1281_Rf212_8Mhz_Gcc/Obj/pdsDataServer.o
 .debug_info    0x000026ba      0x666 All_Sec_ZigBit_Atmega1281_Rf212_8Mhz_Gcc/Obj/pdsInit.o
 .debug_info    0x00002d20      0x519 All_Sec_ZigBit_Atmega1281_Rf212_8Mhz_Gcc/Obj/pdsTimer.o
 .debug_info    0x00003239      0x683 All_Sec_ZigBit_Atmega1281_Rf212_8Mhz_Gcc/Obj/pdsEvents.o
 .debug_info    0x000038bc      0x81e All_Sec_ZigBit_Atmega1281_Rf212_8Mhz_Gcc/Obj/pdsMemAccess.o
 .debug_info    0x000040da      0x72f All_Sec_ZigBit_Atmega1281_Rf212_8Mhz_Gcc/Obj/pdsCrcService.o
 .debug_info    0x00004809      0x18c All_Sec_ZigBit_Atmega1281_Rf212_8Mhz_Gcc/Obj/sensors.o
 .debug_info    0x00004995      0x617 All_Sec_ZigBit_Atmega1281_Rf212_8Mhz_Gcc/Obj/buttons.o
 .debug_info    0x00004fac       0x6b All_Sec_ZigBit_Atmega1281_Rf212_8Mhz_Gcc/Obj/pwrCtrl.o
 .debug_info    0x00005017      0x2a6 All_Sec_ZigBit_Atmega1281_Rf212_8Mhz_Gcc/Obj/leds.o
 .debug_info    0x000052bd       0xe6 All_Sec_ZigBit_Atmega1281_Rf212_8Mhz_Gcc/Obj/battery.o
 .debug_info    0x000053a3      0x571 All_Sec_ZigBit_Atmega1281_Rf212_8Mhz_Gcc/Obj/lm73.o
 .debug_info    0x00005914      0xa00 All_Sec_ZigBit_Atmega1281_Rf212_8Mhz_Gcc/Obj/tsl2550.o
 .debug_info    0x00006314      0x1a6 All_Sec_ZigBit_Atmega1281_Rf212_8Mhz_Gcc/Obj/sliders.o
 .debug_info    0x000064ba      0x3a0 All_Sec_ZigBit_Atmega1281_Rf212_8Mhz_Gcc/Obj/fakeBSP.o
 .debug_info    0x0000685a      0x21c All_Sec_ZigBit_Atmega1281_Rf212_8Mhz_Gcc/Obj/bspTaskManager.o
 .debug_info    0x00006a76     0x3f6b All_Sec_ZigBit_Atmega1281_Rf212_8Mhz_Gcc/Obj/csPersistentMem.o
 .debug_info    0x0000a9e1     0x3f99 All_Sec_ZigBit_Atmega1281_Rf212_8Mhz_Gcc/Obj/csMem.o
 .debug_info    0x0000e97a     0x4239 All_Sec_ZigBit_Atmega1281_Rf212_8Mhz_Gcc/Obj/configServer.o
 .debug_info    0x00012bb3      0x17f c:/winavr-20100110/bin/../lib/gcc/avr/4.3.3/avr51\libgcc.a(_lshrdi3.o)
 .debug_info    0x00012d32      0x17f c:/winavr-20100110/bin/../lib/gcc/avr/4.3.3/avr51\libgcc.a(_ashldi3.o)

.debug_line     0x00000000     0x59d0
 .debug_line    0x00000000      0x511 All_Sec_ZigBit_Atmega1281_Rf212_8Mhz_Gcc/Obj/app.o
 .debug_line    0x00000511      0x21c All_Sec_ZigBit_Atmega1281_Rf212_8Mhz_Gcc/Obj/pdsMem.o
 .debug_line    0x0000072d      0x5ce All_Sec_ZigBit_Atmega1281_Rf212_8Mhz_Gcc/Obj/pdsWriteData.o
 .debug_line    0x00000cfb      0x70f All_Sec_ZigBit_Atmega1281_Rf212_8Mhz_Gcc/Obj/pdsDataServer.o
 .debug_line    0x0000140a      0x358 All_Sec_ZigBit_Atmega1281_Rf212_8Mhz_Gcc/Obj/pdsInit.o
 .debug_line    0x00001762      0x327 All_Sec_ZigBit_Atmega1281_Rf212_8Mhz_Gcc/Obj/pdsTimer.o
 .debug_line    0x00001a89      0x319 All_Sec_ZigBit_Atmega1281_Rf212_8Mhz_Gcc/Obj/pdsEvents.o
 .debug_line    0x00001da2      0x4a5 All_Sec_ZigBit_Atmega1281_Rf212_8Mhz_Gcc/Obj/pdsMemAccess.o
 .debug_line    0x00002247      0x33e All_Sec_ZigBit_Atmega1281_Rf212_8Mhz_Gcc/Obj/pdsCrcService.o
 .debug_line    0x00002585      0x1c6 All_Sec_ZigBit_Atmega1281_Rf212_8Mhz_Gcc/Obj/sensors.o
 .debug_line    0x0000274b      0x551 All_Sec_ZigBit_Atmega1281_Rf212_8Mhz_Gcc/Obj/buttons.o
 .debug_line    0x00002c9c       0x3e All_Sec_ZigBit_Atmega1281_Rf212_8Mhz_Gcc/Obj/pwrCtrl.o
 .debug_line    0x00002cda      0x252 All_Sec_ZigBit_Atmega1281_Rf212_8Mhz_Gcc/Obj/leds.o
 .debug_line    0x00002f2c      0x14b All_Sec_ZigBit_Atmega1281_Rf212_8Mhz_Gcc/Obj/battery.o
 .debug_line    0x00003077      0x37b All_Sec_ZigBit_Atmega1281_Rf212_8Mhz_Gcc/Obj/lm73.o
 .debug_line    0x000033f2      0x685 All_Sec_ZigBit_Atmega1281_Rf212_8Mhz_Gcc/Obj/tsl2550.o
 .debug_line    0x00003a77      0x185 All_Sec_ZigBit_Atmega1281_Rf212_8Mhz_Gcc/Obj/sliders.o
 .debug_line    0x00003bfc      0x2f6 All_Sec_ZigBit_Atmega1281_Rf212_8Mhz_Gcc/Obj/fakeBSP.o
 .debug_line    0x00003ef2      0x245 All_Sec_ZigBit_Atmega1281_Rf212_8Mhz_Gcc/Obj/bspTaskManager.o
 .debug_line    0x00004137      0x6d9 All_Sec_ZigBit_Atmega1281_Rf212_8Mhz_Gcc/Obj/csPersistentMem.o
 .debug_line    0x00004810      0x6f2 All_Sec_ZigBit_Atmega1281_Rf212_8Mhz_Gcc/Obj/csMem.o
 .debug_line    0x00004f02      0x920 All_Sec_ZigBit_Atmega1281_Rf212_8Mhz_Gcc/Obj/configServer.o
 .debug_line    0x00005822       0xd7 c:/winavr-20100110/bin/../lib/gcc/avr/4.3.3/avr51\libgcc.a(_lshrdi3.o)
 .debug_line    0x000058f9       0xd7 c:/winavr-20100110/bin/../lib/gcc/avr/4.3.3/avr51\libgcc.a(_ashldi3.o)

.debug_frame    0x00000000      0x720
 .debug_frame   0x00000000       0x80 All_Sec_ZigBit_Atmega1281_Rf212_8Mhz_Gcc/Obj/app.o
 .debug_frame   0x00000080       0x90 All_Sec_ZigBit_Atmega1281_Rf212_8Mhz_Gcc/Obj/pdsWriteData.o
 .debug_frame   0x00000110       0xe0 All_Sec_ZigBit_Atmega1281_Rf212_8Mhz_Gcc/Obj/pdsDataServer.o
 .debug_frame   0x000001f0       0x20 All_Sec_ZigBit_Atmega1281_Rf212_8Mhz_Gcc/Obj/pdsInit.o
 .debug_frame   0x00000210       0x60 All_Sec_ZigBit_Atmega1281_Rf212_8Mhz_Gcc/Obj/pdsTimer.o
 .debug_frame   0x00000270       0x30 All_Sec_ZigBit_Atmega1281_Rf212_8Mhz_Gcc/Obj/pdsEvents.o
 .debug_frame   0x000002a0       0x70 All_Sec_ZigBit_Atmega1281_Rf212_8Mhz_Gcc/Obj/pdsMemAccess.o
 .debug_frame   0x00000310       0x40 All_Sec_ZigBit_Atmega1281_Rf212_8Mhz_Gcc/Obj/pdsCrcService.o
 .debug_frame   0x00000350       0x70 All_Sec_ZigBit_Atmega1281_Rf212_8Mhz_Gcc/Obj/sensors.o
 .debug_frame   0x000003c0       0x70 All_Sec_ZigBit_Atmega1281_Rf212_8Mhz_Gcc/Obj/buttons.o
 .debug_frame   0x00000430       0x60 All_Sec_ZigBit_Atmega1281_Rf212_8Mhz_Gcc/Obj/leds.o
 .debug_frame   0x00000490       0x60 All_Sec_ZigBit_Atmega1281_Rf212_8Mhz_Gcc/Obj/lm73.o
 .debug_frame   0x000004f0       0xb0 All_Sec_ZigBit_Atmega1281_Rf212_8Mhz_Gcc/Obj/tsl2550.o
 .debug_frame   0x000005a0       0x20 All_Sec_ZigBit_Atmega1281_Rf212_8Mhz_Gcc/Obj/sliders.o
 .debug_frame   0x000005c0       0x80 All_Sec_ZigBit_Atmega1281_Rf212_8Mhz_Gcc/Obj/fakeBSP.o
 .debug_frame   0x00000640       0x20 All_Sec_ZigBit_Atmega1281_Rf212_8Mhz_Gcc/Obj/bspTaskManager.o
 .debug_frame   0x00000660       0x20 All_Sec_ZigBit_Atmega1281_Rf212_8Mhz_Gcc/Obj/csMem.o
 .debug_frame   0x00000680       0x60 All_Sec_ZigBit_Atmega1281_Rf212_8Mhz_Gcc/Obj/configServer.o
 .debug_frame   0x000006e0       0x20 c:/winavr-20100110/bin/../lib/gcc/avr/4.3.3/avr51\libgcc.a(_lshrdi3.o)
 .debug_frame   0x00000700       0x20 c:/winavr-20100110/bin/../lib/gcc/avr/4.3.3/avr51\libgcc.a(_ashldi3.o)

.debug_loc      0x00000000     0x111c
 .debug_loc     0x00000000       0x13 All_Sec_ZigBit_Atmega1281_Rf212_8Mhz_Gcc/Obj/app.o
 .debug_loc     0x00000013      0x1cb All_Sec_ZigBit_Atmega1281_Rf212_8Mhz_Gcc/Obj/pdsWriteData.o
 .debug_loc     0x000001de      0x2a9 All_Sec_ZigBit_Atmega1281_Rf212_8Mhz_Gcc/Obj/pdsDataServer.o
 .debug_loc     0x00000487       0xa9 All_Sec_ZigBit_Atmega1281_Rf212_8Mhz_Gcc/Obj/pdsInit.o
 .debug_loc     0x00000530       0x5c All_Sec_ZigBit_Atmega1281_Rf212_8Mhz_Gcc/Obj/pdsTimer.o
 .debug_loc     0x0000058c       0x5e All_Sec_ZigBit_Atmega1281_Rf212_8Mhz_Gcc/Obj/pdsEvents.o
 .debug_loc     0x000005ea      0x3a7 All_Sec_ZigBit_Atmega1281_Rf212_8Mhz_Gcc/Obj/pdsMemAccess.o
 .debug_loc     0x00000991       0xd1 All_Sec_ZigBit_Atmega1281_Rf212_8Mhz_Gcc/Obj/pdsCrcService.o
 .debug_loc     0x00000a62       0x30 All_Sec_ZigBit_Atmega1281_Rf212_8Mhz_Gcc/Obj/sensors.o
 .debug_loc     0x00000a92       0x7f All_Sec_ZigBit_Atmega1281_Rf212_8Mhz_Gcc/Obj/buttons.o
 .debug_loc     0x00000b11       0x34 All_Sec_ZigBit_Atmega1281_Rf212_8Mhz_Gcc/Obj/leds.o
 .debug_loc     0x00000b45       0x71 All_Sec_ZigBit_Atmega1281_Rf212_8Mhz_Gcc/Obj/lm73.o
 .debug_loc     0x00000bb6      0x209 All_Sec_ZigBit_Atmega1281_Rf212_8Mhz_Gcc/Obj/tsl2550.o
 .debug_loc     0x00000dbf       0x30 All_Sec_ZigBit_Atmega1281_Rf212_8Mhz_Gcc/Obj/fakeBSP.o
 .debug_loc     0x00000def      0x13d All_Sec_ZigBit_Atmega1281_Rf212_8Mhz_Gcc/Obj/configServer.o
 .debug_loc     0x00000f2c       0xf8 c:/winavr-20100110/bin/../lib/gcc/avr/4.3.3/avr51\libgcc.a(_lshrdi3.o)
 .debug_loc     0x00001024       0xf8 c:/winavr-20100110/bin/../lib/gcc/avr/4.3.3/avr51\libgcc.a(_ashldi3.o)

.debug_pubnames
                0x00000000      0xb55
 .debug_pubnames
                0x00000000       0x8b All_Sec_ZigBit_Atmega1281_Rf212_8Mhz_Gcc/Obj/app.o
 .debug_pubnames
                0x0000008b       0x1d All_Sec_ZigBit_Atmega1281_Rf212_8Mhz_Gcc/Obj/pdsMem.o
 .debug_pubnames
                0x000000a8       0xab All_Sec_ZigBit_Atmega1281_Rf212_8Mhz_Gcc/Obj/pdsWriteData.o
 .debug_pubnames
                0x00000153       0xfb All_Sec_ZigBit_Atmega1281_Rf212_8Mhz_Gcc/Obj/pdsDataServer.o
 .debug_pubnames
                0x0000024e       0x1f All_Sec_ZigBit_Atmega1281_Rf212_8Mhz_Gcc/Obj/pdsInit.o
 .debug_pubnames
                0x0000026d       0x51 All_Sec_ZigBit_Atmega1281_Rf212_8Mhz_Gcc/Obj/pdsTimer.o
 .debug_pubnames
                0x000002be       0x28 All_Sec_ZigBit_Atmega1281_Rf212_8Mhz_Gcc/Obj/pdsEvents.o
 .debug_pubnames
                0x000002e6       0xa9 All_Sec_ZigBit_Atmega1281_Rf212_8Mhz_Gcc/Obj/pdsMemAccess.o
 .debug_pubnames
                0x0000038f       0x52 All_Sec_ZigBit_Atmega1281_Rf212_8Mhz_Gcc/Obj/pdsCrcService.o
 .debug_pubnames
                0x000003e1       0xb2 All_Sec_ZigBit_Atmega1281_Rf212_8Mhz_Gcc/Obj/sensors.o
 .debug_pubnames
                0x00000493       0xa2 All_Sec_ZigBit_Atmega1281_Rf212_8Mhz_Gcc/Obj/buttons.o
 .debug_pubnames
                0x00000535       0x64 All_Sec_ZigBit_Atmega1281_Rf212_8Mhz_Gcc/Obj/leds.o
 .debug_pubnames
                0x00000599       0x51 All_Sec_ZigBit_Atmega1281_Rf212_8Mhz_Gcc/Obj/lm73.o
 .debug_pubnames
                0x000005ea       0x7f All_Sec_ZigBit_Atmega1281_Rf212_8Mhz_Gcc/Obj/tsl2550.o
 .debug_pubnames
                0x00000669       0x26 All_Sec_ZigBit_Atmega1281_Rf212_8Mhz_Gcc/Obj/sliders.o
 .debug_pubnames
                0x0000068f       0xdb All_Sec_ZigBit_Atmega1281_Rf212_8Mhz_Gcc/Obj/fakeBSP.o
 .debug_pubnames
                0x0000076a       0x37 All_Sec_ZigBit_Atmega1281_Rf212_8Mhz_Gcc/Obj/bspTaskManager.o
 .debug_pubnames
                0x000007a1      0x22a All_Sec_ZigBit_Atmega1281_Rf212_8Mhz_Gcc/Obj/csPersistentMem.o
 .debug_pubnames
                0x000009cb       0xd9 All_Sec_ZigBit_Atmega1281_Rf212_8Mhz_Gcc/Obj/csMem.o
 .debug_pubnames
                0x00000aa4       0x71 All_Sec_ZigBit_Atmega1281_Rf212_8Mhz_Gcc/Obj/configServer.o
 .debug_pubnames
                0x00000b15       0x20 c:/winavr-20100110/bin/../lib/gcc/avr/4.3.3/avr51\libgcc.a(_lshrdi3.o)
 .debug_pubnames
                0x00000b35       0x20 c:/winavr-20100110/bin/../lib/gcc/avr/4.3.3/avr51\libgcc.a(_ashldi3.o)

.debug_aranges  0x00000000      0x4d0
 .debug_aranges
                0x00000000       0x50 All_Sec_ZigBit_Atmega1281_Rf212_8Mhz_Gcc/Obj/app.o
 .debug_aranges
                0x00000050       0x58 All_Sec_ZigBit_Atmega1281_Rf212_8Mhz_Gcc/Obj/pdsWriteData.o
 .debug_aranges
                0x000000a8       0x80 All_Sec_ZigBit_Atmega1281_Rf212_8Mhz_Gcc/Obj/pdsDataServer.o
 .debug_aranges
                0x00000128       0x20 All_Sec_ZigBit_Atmega1281_Rf212_8Mhz_Gcc/Obj/pdsInit.o
 .debug_aranges
                0x00000148       0x40 All_Sec_ZigBit_Atmega1281_Rf212_8Mhz_Gcc/Obj/pdsTimer.o
 .debug_aranges
                0x00000188       0x28 All_Sec_ZigBit_Atmega1281_Rf212_8Mhz_Gcc/Obj/pdsEvents.o
 .debug_aranges
                0x000001b0       0x48 All_Sec_ZigBit_Atmega1281_Rf212_8Mhz_Gcc/Obj/pdsMemAccess.o
 .debug_aranges
                0x000001f8       0x30 All_Sec_ZigBit_Atmega1281_Rf212_8Mhz_Gcc/Obj/pdsCrcService.o
 .debug_aranges
                0x00000228       0x48 All_Sec_ZigBit_Atmega1281_Rf212_8Mhz_Gcc/Obj/sensors.o
 .debug_aranges
                0x00000270       0x48 All_Sec_ZigBit_Atmega1281_Rf212_8Mhz_Gcc/Obj/buttons.o
 .debug_aranges
                0x000002b8       0x40 All_Sec_ZigBit_Atmega1281_Rf212_8Mhz_Gcc/Obj/leds.o
 .debug_aranges
                0x000002f8       0x40 All_Sec_ZigBit_Atmega1281_Rf212_8Mhz_Gcc/Obj/lm73.o
 .debug_aranges
                0x00000338       0x68 All_Sec_ZigBit_Atmega1281_Rf212_8Mhz_Gcc/Obj/tsl2550.o
 .debug_aranges
                0x000003a0       0x20 All_Sec_ZigBit_Atmega1281_Rf212_8Mhz_Gcc/Obj/sliders.o
 .debug_aranges
                0x000003c0       0x50 All_Sec_ZigBit_Atmega1281_Rf212_8Mhz_Gcc/Obj/fakeBSP.o
 .debug_aranges
                0x00000410       0x20 All_Sec_ZigBit_Atmega1281_Rf212_8Mhz_Gcc/Obj/bspTaskManager.o
 .debug_aranges
                0x00000430       0x20 All_Sec_ZigBit_Atmega1281_Rf212_8Mhz_Gcc/Obj/csMem.o
 .debug_aranges
                0x00000450       0x40 All_Sec_ZigBit_Atmega1281_Rf212_8Mhz_Gcc/Obj/configServer.o
 .debug_aranges
                0x00000490       0x20 c:/winavr-20100110/bin/../lib/gcc/avr/4.3.3/avr51\libgcc.a(_lshrdi3.o)
 .debug_aranges
                0x000004b0       0x20 c:/winavr-20100110/bin/../lib/gcc/avr/4.3.3/avr51\libgcc.a(_ashldi3.o)

.debug_ranges   0x00000000      0x4c8
 .debug_ranges  0x00000000       0x48 All_Sec_ZigBit_Atmega1281_Rf212_8Mhz_Gcc/Obj/app.o
 .debug_ranges  0x00000048       0x98 All_Sec_ZigBit_Atmega1281_Rf212_8Mhz_Gcc/Obj/pdsWriteData.o
 .debug_ranges  0x000000e0       0x78 All_Sec_ZigBit_Atmega1281_Rf212_8Mhz_Gcc/Obj/pdsDataServer.o
 .debug_ranges  0x00000158       0x38 All_Sec_ZigBit_Atmega1281_Rf212_8Mhz_Gcc/Obj/pdsInit.o
 .debug_ranges  0x00000190       0x38 All_Sec_ZigBit_Atmega1281_Rf212_8Mhz_Gcc/Obj/pdsTimer.o
 .debug_ranges  0x000001c8       0x20 All_Sec_ZigBit_Atmega1281_Rf212_8Mhz_Gcc/Obj/pdsEvents.o
 .debug_ranges  0x000001e8       0xa0 All_Sec_ZigBit_Atmega1281_Rf212_8Mhz_Gcc/Obj/pdsMemAccess.o
 .debug_ranges  0x00000288       0x28 All_Sec_ZigBit_Atmega1281_Rf212_8Mhz_Gcc/Obj/pdsCrcService.o
 .debug_ranges  0x000002b0       0x40 All_Sec_ZigBit_Atmega1281_Rf212_8Mhz_Gcc/Obj/sensors.o
 .debug_ranges  0x000002f0       0x40 All_Sec_ZigBit_Atmega1281_Rf212_8Mhz_Gcc/Obj/buttons.o
 .debug_ranges  0x00000330       0x38 All_Sec_ZigBit_Atmega1281_Rf212_8Mhz_Gcc/Obj/leds.o
 .debug_ranges  0x00000368       0x38 All_Sec_ZigBit_Atmega1281_Rf212_8Mhz_Gcc/Obj/lm73.o
 .debug_ranges  0x000003a0       0x60 All_Sec_ZigBit_Atmega1281_Rf212_8Mhz_Gcc/Obj/tsl2550.o
 .debug_ranges  0x00000400       0x18 All_Sec_ZigBit_Atmega1281_Rf212_8Mhz_Gcc/Obj/sliders.o
 .debug_ranges  0x00000418       0x48 All_Sec_ZigBit_Atmega1281_Rf212_8Mhz_Gcc/Obj/fakeBSP.o
 .debug_ranges  0x00000460       0x18 All_Sec_ZigBit_Atmega1281_Rf212_8Mhz_Gcc/Obj/bspTaskManager.o
 .debug_ranges  0x00000478       0x18 All_Sec_ZigBit_Atmega1281_Rf212_8Mhz_Gcc/Obj/csMem.o
 .debug_ranges  0x00000490       0x38 All_Sec_ZigBit_Atmega1281_Rf212_8Mhz_Gcc/Obj/configServer.o

.debug_str      0x00000000     0x761a
 .debug_str     0x00000000      0xbd4 All_Sec_ZigBit_Atmega1281_Rf212_8Mhz_Gcc/Obj/app.o
                                0xc31 (size before relaxing)
 .debug_str     0x00000bd4      0x183 All_Sec_ZigBit_Atmega1281_Rf212_8Mhz_Gcc/Obj/pdsMem.o
                                0x35d (size before relaxing)
 .debug_str     0x00000d57      0x9c3 All_Sec_ZigBit_Atmega1281_Rf212_8Mhz_Gcc/Obj/pdsWriteData.o
                                0xd07 (size before relaxing)
 .debug_str     0x0000171a      0x188 All_Sec_ZigBit_Atmega1281_Rf212_8Mhz_Gcc/Obj/pdsDataServer.o
                                0xd65 (size before relaxing)
 .debug_str     0x000018a2      0x106 All_Sec_ZigBit_Atmega1281_Rf212_8Mhz_Gcc/Obj/pdsInit.o
                                0x9d5 (size before relaxing)
 .debug_str     0x000019a8       0x80 All_Sec_ZigBit_Atmega1281_Rf212_8Mhz_Gcc/Obj/pdsTimer.o
                                0x8f6 (size before relaxing)
 .debug_str     0x00001a28      0x132 All_Sec_ZigBit_Atmega1281_Rf212_8Mhz_Gcc/Obj/pdsEvents.o
                                0x9da (size before relaxing)
 .debug_str     0x00001b5a      0x13d All_Sec_ZigBit_Atmega1281_Rf212_8Mhz_Gcc/Obj/pdsMemAccess.o
                                0xaa0 (size before relaxing)
 .debug_str     0x00001c97       0x8e All_Sec_ZigBit_Atmega1281_Rf212_8Mhz_Gcc/Obj/pdsCrcService.o
                                0xa2f (size before relaxing)
 .debug_str     0x00001d25       0xce All_Sec_ZigBit_Atmega1281_Rf212_8Mhz_Gcc/Obj/sensors.o
                                0x198 (size before relaxing)
 .debug_str     0x00001df3      0x234 All_Sec_ZigBit_Atmega1281_Rf212_8Mhz_Gcc/Obj/buttons.o
                                0x44c (size before relaxing)
 .debug_str     0x00002027       0x3d All_Sec_ZigBit_Atmega1281_Rf212_8Mhz_Gcc/Obj/pwrCtrl.o
                                 0xf8 (size before relaxing)
 .debug_str     0x00002064      0x14a All_Sec_ZigBit_Atmega1281_Rf212_8Mhz_Gcc/Obj/leds.o
                                0x216 (size before relaxing)
 .debug_str     0x000021ae       0x3d All_Sec_ZigBit_Atmega1281_Rf212_8Mhz_Gcc/Obj/battery.o
                                0x169 (size before relaxing)
 .debug_str     0x000021eb      0x1dc All_Sec_ZigBit_Atmega1281_Rf212_8Mhz_Gcc/Obj/lm73.o
                                0x43b (size before relaxing)
 .debug_str     0x000023c7      0x1d0 All_Sec_ZigBit_Atmega1281_Rf212_8Mhz_Gcc/Obj/tsl2550.o
                                0x5f3 (size before relaxing)
 .debug_str     0x00002597       0xd7 All_Sec_ZigBit_Atmega1281_Rf212_8Mhz_Gcc/Obj/sliders.o
                                0x1a1 (size before relaxing)
 .debug_str     0x0000266e      0x14e All_Sec_ZigBit_Atmega1281_Rf212_8Mhz_Gcc/Obj/fakeBSP.o
                                0x372 (size before relaxing)
 .debug_str     0x000027bc       0x54 All_Sec_ZigBit_Atmega1281_Rf212_8Mhz_Gcc/Obj/bspTaskManager.o
                                0x256 (size before relaxing)
 .debug_str     0x00002810     0x3ea7 All_Sec_ZigBit_Atmega1281_Rf212_8Mhz_Gcc/Obj/csPersistentMem.o
                               0x4cfb (size before relaxing)
 .debug_str     0x000066b7      0x35d All_Sec_ZigBit_Atmega1281_Rf212_8Mhz_Gcc/Obj/csMem.o
                               0x4ddb (size before relaxing)
 .debug_str     0x00006a14      0xb4f All_Sec_ZigBit_Atmega1281_Rf212_8Mhz_Gcc/Obj/configServer.o
                               0x5636 (size before relaxing)
 .debug_str     0x00007563       0xad c:/winavr-20100110/bin/../lib/gcc/avr/4.3.3/avr51\libgcc.a(_lshrdi3.o)
                                0x132 (size before relaxing)
 .debug_str     0x00007610        0xa c:/winavr-20100110/bin/../lib/gcc/avr/4.3.3/avr51\libgcc.a(_ashldi3.o)
                                0x132 (size before relaxing)
